
 Start         Length     Name                   Class
 0001:00000000 00055CC8H .text                   CODE
 0002:00000000 00006120H .data                   DATA
 0002:00006120 00003C69H .bss                    BSS


Detailed map of segments

 0001:00000000 00000356 C=CODE     S=.text    G=(none)   M=System   ACBP=A9
 0001:00000358 00000140 C=CODE     S=.text    G=(none)   M=SysInit  ACBP=A9
 0001:00000498 000006A0 C=CODE     S=.text    G=(none)   M=Windows  ACBP=A9
 0001:00000B38 0000000E C=CODE     S=.text    G=(none)   M=Types    ACBP=A9
 0001:00000B48 00001DDB C=CODE     S=.text    G=(none)   M=ELeaks   ACBP=A9
 0001:00002924 000001F6 C=CODE     S=.text    G=(none)   M=SysUtils ACBP=A9
 0001:00002B1C 0000000E C=CODE     S=.text    G=(none)   M=SysConst ACBP=A9
 0001:00002B2C 00000038 C=CODE     S=.text    G=(none)   M=Messages ACBP=A9
 0001:00002B64 00000196 C=CODE     S=.text    G=(none)   M=Classes  ACBP=A9
 0001:00002CFC 0000000E C=CODE     S=.text    G=(none)   M=ActiveX  ACBP=A9
 0001:00002D0C 0000003E C=CODE     S=.text    G=(none)   M=TypInfo  ACBP=A9
 0001:00002D4C 0000000E C=CODE     S=.text    G=(none)   M=Variants ACBP=A9
 0001:00002D5C 0000000E C=CODE     S=.text    G=(none)   M=VarUtils ACBP=A9
 0001:00002D6C 0000000E C=CODE     S=.text    G=(none)   M=RTLConsts ACBP=A9
 0001:00002D7C 00000038 C=CODE     S=.text    G=(none)   M=ETypes   ACBP=A9
 0001:00002DB4 00002944 C=CODE     S=.text    G=(none)   M=EConsts  ACBP=A9
 0001:000056F8 00003E78 C=CODE     S=.text    G=(none)   M=ECore    ACBP=A9
 0001:00009570 000045C8 C=CODE     S=.text    G=(none)   M=EDebug   ACBP=A9
 0001:0000DB38 00000040 C=CODE     S=.text    G=(none)   M=ShellAPI ACBP=A9
 0001:0000DB78 000000A0 C=CODE     S=.text    G=(none)   M=WinSock  ACBP=A9
 0001:0000DC18 000014F8 C=CODE     S=.text    G=(none)   M=EHook    ACBP=A9
 0001:0000F110 000000E8 C=CODE     S=.text    G=(none)   M=ELang    ACBP=A9
 0001:0000F1F8 0000158C C=CODE     S=.text    G=(none)   M=ESockets ACBP=A9
 0001:00010784 00007A10 C=CODE     S=.text    G=(none)   M=EZlib    ACBP=A9
 0001:00018194 00000AFC C=CODE     S=.text    G=(none)   M=EHash    ACBP=A9
 0001:00018C90 00000354 C=CODE     S=.text    G=(none)   M=EEncrypt ACBP=A9
 0001:00018FE4 000002DC C=CODE     S=.text    G=(none)   M=EBase64  ACBP=A9
 0001:000192C0 00000190 C=CODE     S=.text    G=(none)   M=EZip     ACBP=A9
 0001:00019450 0000715C C=CODE     S=.text    G=(none)   M=EWebTools ACBP=A9
 0001:000205AC 000005A8 C=CODE     S=.text    G=(none)   M=EXMLBuilder ACBP=A9
 0001:00020B54 0000422C C=CODE     S=.text    G=(none)   M=ELogManager ACBP=A9
 0001:00024D80 00001320 C=CODE     S=.text    G=(none)   M=EListView ACBP=A9
 0001:000260A0 00007434 C=CODE     S=.text    G=(none)   M=EDisAsm  ACBP=A9
 0001:0002D4D4 00027B9C C=CODE     S=.text    G=(none)   M=ExceptionLog ACBP=A9
 0001:00055070 0000013E C=CODE     S=.text    G=(none)   M=Forms    ACBP=A9
 0001:000551B0 0000000E C=CODE     S=.text    G=(none)   M=HelpIntfs ACBP=A9
 0001:000551C0 00000026 C=CODE     S=.text    G=(none)   M=Contnrs  ACBP=A9
 0001:000551E8 0000000E C=CODE     S=.text    G=(none)   M=Math     ACBP=A9
 0001:000551F8 0000000E C=CODE     S=.text    G=(none)   M=MultiMon ACBP=A9
 0001:00055208 0000000E C=CODE     S=.text    G=(none)   M=ActnList ACBP=A9
 0001:00055218 0000000E C=CODE     S=.text    G=(none)   M=ImgList  ACBP=A9
 0001:00055228 00000038 C=CODE     S=.text    G=(none)   M=CommCtrl ACBP=A9
 0001:00055260 0000000E C=CODE     S=.text    G=(none)   M=Graphics ACBP=A9
 0001:00055270 0000000E C=CODE     S=.text    G=(none)   M=Consts   ACBP=A9
 0001:00055280 000000DE C=CODE     S=.text    G=(none)   M=Controls ACBP=A9
 0001:00055360 00000038 C=CODE     S=.text    G=(none)   M=Imm      ACBP=A9
 0001:00055398 0000000E C=CODE     S=.text    G=(none)   M=Menus    ACBP=A9
 0001:000553A8 0000000E C=CODE     S=.text    G=(none)   M=WinHelpViewer ACBP=A9
 0001:000553B8 0000000E C=CODE     S=.text    G=(none)   M=StdActns ACBP=A9
 0001:000553C8 0000000E C=CODE     S=.text    G=(none)   M=Dialogs  ACBP=A9
 0001:000553D8 00000038 C=CODE     S=.text    G=(none)   M=ShlObj   ACBP=A9
 0001:00055410 00000038 C=CODE     S=.text    G=(none)   M=UrlMon   ACBP=A9
 0001:00055448 00000038 C=CODE     S=.text    G=(none)   M=WinInet  ACBP=A9
 0001:00055480 00000038 C=CODE     S=.text    G=(none)   M=RegStr   ACBP=A9
 0001:000554B8 0000000E C=CODE     S=.text    G=(none)   M=Printers ACBP=A9
 0001:000554C8 00000038 C=CODE     S=.text    G=(none)   M=WinSpool ACBP=A9
 0001:00055500 0000000E C=CODE     S=.text    G=(none)   M=StdCtrls ACBP=A9
 0001:00055510 00000038 C=CODE     S=.text    G=(none)   M=CommDlg  ACBP=A9
 0001:00055548 00000038 C=CODE     S=.text    G=(none)   M=Dlgs     ACBP=A9
 0001:00055580 0000000E C=CODE     S=.text    G=(none)   M=ExtCtrls ACBP=A9
 0001:00055590 0000000E C=CODE     S=.text    G=(none)   M=StrUtils ACBP=A9
 0001:000555A0 0000000E C=CODE     S=.text    G=(none)   M=Clipbrd  ACBP=A9
 0001:000555B0 0000000E C=CODE     S=.text    G=(none)   M=FlatSB   ACBP=A9
 0001:000555C0 00000488 C=CODE     S=.text    G=(none)   M=frmMain  ACBP=A9
 0001:00055A48 0000027D C=CODE     S=.text    G=(none)   M=LearnDelphi ACBP=A9
 0002:00000000 00000018 C=DATA     S=.data    G=DGROUP   M=SysInit  ACBP=A9
 0002:00000018 00000014 C=DATA     S=.data    G=DGROUP   M=ELeaks   ACBP=A9
 0002:0000002C 00000908 C=DATA     S=.data    G=DGROUP   M=EConsts  ACBP=A9
 0002:00000934 00000044 C=DATA     S=.data    G=DGROUP   M=ECore    ACBP=A9
 0002:00000978 0000004C C=DATA     S=.data    G=DGROUP   M=EDebug   ACBP=A9
 0002:000009C4 000001A0 C=DATA     S=.data    G=DGROUP   M=EHook    ACBP=A9
 0002:00000B64 00000001 C=DATA     S=.data    G=DGROUP   M=ESockets ACBP=A9
 0002:00000B68 00000E5C C=DATA     S=.data    G=DGROUP   M=EZlib    ACBP=A9
 0002:000019C4 00000212 C=DATA     S=.data    G=DGROUP   M=EHash    ACBP=A9
 0002:00001BD8 000000C0 C=DATA     S=.data    G=DGROUP   M=EBase64  ACBP=A9
 0002:00001C98 00002B8C C=DATA     S=.data    G=DGROUP   M=EWebTools ACBP=A9
 0002:00004824 00000020 C=DATA     S=.data    G=DGROUP   M=EXMLBuilder ACBP=A9
 0002:00004844 00000020 C=DATA     S=.data    G=DGROUP   M=ELogManager ACBP=A9
 0002:00004864 000012D5 C=DATA     S=.data    G=DGROUP   M=EDisAsm  ACBP=A9
 0002:00005B3C 0000055C C=DATA     S=.data    G=DGROUP   M=ExceptionLog ACBP=A9
 0002:00007000 00000018 C=BSS      S=.bss     G=DGROUP   M=SysInit  ACBP=A9
 0002:00007018 00000004 C=BSS      S=.bss     G=DGROUP   M=Windows  ACBP=A9
 0002:0000701C 00000054 C=BSS      S=.bss     G=DGROUP   M=ELeaks   ACBP=A9
 0002:00007070 00000004 C=BSS      S=.bss     G=DGROUP   M=Messages ACBP=A9
 0002:00007074 00000004 C=BSS      S=.bss     G=DGROUP   M=ETypes   ACBP=A9
 0002:00007078 00000004 C=BSS      S=.bss     G=DGROUP   M=EConsts  ACBP=A9
 0002:0000707C 00000009 C=BSS      S=.bss     G=DGROUP   M=ECore    ACBP=A9
 0002:00007088 00000004 C=BSS      S=.bss     G=DGROUP   M=EDebug   ACBP=A9
 0002:0000708C 00000004 C=BSS      S=.bss     G=DGROUP   M=ShellAPI ACBP=A9
 0002:00007090 00000004 C=BSS      S=.bss     G=DGROUP   M=WinSock  ACBP=A9
 0002:00007094 00000010 C=BSS      S=.bss     G=DGROUP   M=EHook    ACBP=A9
 0002:000070A4 00000004 C=BSS      S=.bss     G=DGROUP   M=ELang    ACBP=A9
 0002:000070A8 00000004 C=BSS      S=.bss     G=DGROUP   M=ESockets ACBP=A9
 0002:000070AC 00002890 C=BSS      S=.bss     G=DGROUP   M=EZlib    ACBP=A9
 0002:0000993C 00000404 C=BSS      S=.bss     G=DGROUP   M=EHash    ACBP=A9
 0002:00009D40 0000001C C=BSS      S=.bss     G=DGROUP   M=EEncrypt ACBP=A9
 0002:00009D5C 00000004 C=BSS      S=.bss     G=DGROUP   M=EBase64  ACBP=A9
 0002:00009D60 00000004 C=BSS      S=.bss     G=DGROUP   M=EZip     ACBP=A9
 0002:00009D64 00000048 C=BSS      S=.bss     G=DGROUP   M=EWebTools ACBP=A9
 0002:00009DAC 00000004 C=BSS      S=.bss     G=DGROUP   M=EXMLBuilder ACBP=A9
 0002:00009DB0 00000004 C=BSS      S=.bss     G=DGROUP   M=ELogManager ACBP=A9
 0002:00009DB4 00000004 C=BSS      S=.bss     G=DGROUP   M=EListView ACBP=A9
 0002:00009DB8 00000004 C=BSS      S=.bss     G=DGROUP   M=EDisAsm  ACBP=A9
 0002:00009DBC 00000E80 C=BSS      S=.bss     G=DGROUP   M=ExceptionLog ACBP=A9
 0002:0000AC3C 00000004 C=BSS      S=.bss     G=DGROUP   M=CommCtrl ACBP=A9
 0002:0000AC40 00000004 C=BSS      S=.bss     G=DGROUP   M=Imm      ACBP=A9
 0002:0000AC44 00000004 C=BSS      S=.bss     G=DGROUP   M=ShlObj   ACBP=A9
 0002:0000AC48 00000004 C=BSS      S=.bss     G=DGROUP   M=UrlMon   ACBP=A9
 0002:0000AC4C 00000004 C=BSS      S=.bss     G=DGROUP   M=WinInet  ACBP=A9
 0002:0000AC50 00000004 C=BSS      S=.bss     G=DGROUP   M=RegStr   ACBP=A9
 0002:0000AC54 00000004 C=BSS      S=.bss     G=DGROUP   M=WinSpool ACBP=A9
 0002:0000AC58 00000004 C=BSS      S=.bss     G=DGROUP   M=CommDlg  ACBP=A9
 0002:0000AC5C 00000004 C=BSS      S=.bss     G=DGROUP   M=Dlgs     ACBP=A9
 0002:0000AC60 00000008 C=BSS      S=.bss     G=DGROUP   M=frmMain  ACBP=A9


  Address         Publics by Name

 0002:00000E2C       ..
 0001:00016318       ..
 0002:00000F58       ..
 0002:000090B0       ..
 0002:00000CBC       ..
 0002:00000C6C       ..
 0002:00000C18       ..
 0002:000070B0       ..
 0002:00000C00       ..
 0001:000128B0       ..
 0002:00000BF8       ..
 0001:000127E8       ..
 0002:00000BEC       ..
 0001:000123DC       ..
 0002:00000B90       ..
 0001:00010EC8       ..
 0002:00007070       .1
 0002:0000708C       .1
 0002:0000AC5C       .1
 0002:00007074       .1
 0002:0000993C       .1
 0002:00007090       .1
 0002:00007094       .1
 0002:00007034       .1
 0002:0000AC58       .1
 0002:00009D40       .1
 0002:00009D5C       .1
 0002:000070A4       .1
 0002:00007010       .1
 0002:0000AC50       .1
 0002:0000AC4C       .1
 0002:0000AC48       .1
 0002:0000AC44       .1
 0002:0000AC40       .1
 0002:0000AC3C       .1
 0002:00009DB4       .2
 0002:000070AC       .2
 0002:0000AC64       .2
 0002:00009DB8       .2
 0002:00009DE0       .21
 0002:0000AC54       .3
 0002:00009DAC       .3
 0002:00007018       .3
 0002:00009DB0       .3
 0002:00009D60       .3
 0002:000070A8       .4
 0002:00007080       .4
 0002:00007078       .5
 0002:00009D64       .7
 0002:00007088       .92
 0001:0001325C       @deflateInit2_
 0001:000124A8       @fill_fopen_filefunc
 0001:000003D0       @GetTls
 0001:000129E0       @get_crc_table
 0001:00014950       @inflateInit2_
 0001:00014398       @inflate_fast
 0001:00015EA8       @inflate_table
 0001:0000041C       @InitExe
 0001:00017518       @_tr_align
 0001:000177E4       @_tr_flush_block
 0001:0001631C       @_tr_init
 0001:0001745C       @_tr_stored_block
 0001:00047ADC       AccessViolationModuleInLongFormat
 0001:0003E500       ActicatePage
 0002:00009F58       ActivateEurekaLog
 0001:0001AD6C       AddAuthenticationToURL
 0001:0004DAF0       AddCallerCallStack
 0001:00042378       AddColor
 0001:0003A164       AddCustomHeadersToLog
 0001:0003A008       AddCustomHeaderToLog
 0001:0000FE98       AddDNS
 0002:00007030       AddLeak
 0001:00038D60       AddModule
 0001:0003307C       AddNewProcess
 0001:00033444       AddNewProcessEx
 0001:0000E1E0       AddrSize
 0001:0004694C       AddStr
 0001:00038EE0       AddToStack
 0001:000222FC       AddValueField
 0001:00010CE0       AddZipFile
 0001:0003E450       AdjustDialog
 0001:0003B930       AdjustFlatStyle
 0001:000124E0       adler32
 0001:00042F54       AfterScreenshot
 0001:00042C6C       AfterScreenshotToStream
 0002:0000704C       AllocatedList_End
 0002:00007044       AllocatedList_Lock
 0002:00007048       AllocatedList_Start
 0001:00000378       AllocTlsBuffer
 0002:00004804       AlphaNumerics
 0001:00039534       ApplicationRestore
 0001:00001540       AreTheSameLeak
 0001:00037DFC       ASMAssigned
 0002:00000A64       AsmConst
 0001:0003CECC       AssemblerDialogProc
 0001:0002EFB0       AssemblerToRTF
 0001:00040934       AssignOnCloseData
 0001:0003A978       AssignPriority
 0001:00040794       AssignRequestData
 0001:0000D9D0       AssignValidDebugInfo
 0001:00043D9C       AttachedFile
 0001:00043FF8       AttachedFiles
 0002:00009DD4       AttachedFilesRequest
 0001:00049688       AttrToString
 0002:00009F60       AutoCloseTimer
 0001:00039EDC       AutoCloseTimerProc
 0001:00019104       Base64Decode
 0001:000191E4       Base64DecodeStr
 0001:0001924C       Base64DecodeString
 0001:00019048       Base64Encode
 0001:00043974       Base64EncodeFromFile
 0001:00019198       Base64EncodeStr
 0001:00019244       Base64EncodeString
 0001:00019254       Base64EncodeToString
 0001:00000870       BeginPaint
 0001:0000766C       BinToStr
 0001:00000778       BitBlt
 0001:000464DC       BlockingSendInternetMessage
 0002:0000001C       BlockOverFoot
 0002:00000018       BlockOverHead
 0001:000336D8       BuildListPS
 0001:000335A0       BuildListTH
 0002:00005B24       ByteRegs1
 0002:00005B28       ByteRegs2
 0001:000424E0       BytesPerScanline
 0001:00041F4C       BytesSwap
 0002:0000A15C       Cached_LogFile
 0001:000515EC       CalcAddr
 0001:00041F7C       CalcCRC
 0001:00019010       CalcDecodedSize
 0001:00035F1C       CalcDuplicatedException
 0001:00018FE4       CalcEncodedSize
 0001:0000E53C       CalculateRelocatedAsmSize
 0001:00037018       CallAttachedFilesRequest
 0001:00037088       CallAttachedFilesRequestEvents
 0001:000371BC       CallCustomButtonClickEvent
 0001:00037228       CallCustomButtonClickEvents
 0001:00036F48       CallCustomDataRequest
 0001:00036FB8       CallCustomDataRequestEvents
 0001:000370EC       CallCustomWebFieldsRequest
 0001:0003715C       CallCustomWebFieldsRequestEvents
 0001:00000BFC       CallerOfReallocMem
 0001:00051B3C       CallEurekaLog
 0001:00036C4C       CallExceptionActionNotify
 0001:00049F94       CallExceptionActionNotify_atSavedLogFile
 0001:00049F70       CallExceptionActionNotify_atSavingLogFile
 0001:0004531C       CallExceptionActionNotify_atSendingEmail
 0001:00045364       CallExceptionActionNotify_atSendingWebMessage
 0001:00045340       CallExceptionActionNotify_atSentEmail
 0001:00045388       CallExceptionActionNotify_atSentWebMessage
 0001:0004A254       CallExceptionActionNotify_atShowedExceptionInfo
 0001:0004A230       CallExceptionActionNotify_atShowingExceptionInfo
 0001:00041884       CallExceptionActionNotify_atTerminating
 0001:00036DC0       CallExceptionErrorNotify
 0001:00049FB8       CallExceptionErrorNotify_atSavedLogFile
 0001:000453AC       CallExceptionErrorNotify_atSentEmail
 0001:000453D0       CallExceptionErrorNotify_atSentWebMessage
 0001:00036A54       CallExceptionNotify
 0001:00036AC0       CallExceptionNotifyEvents
 0002:00006064       CallFromCOMObject
 0001:00036B24       CallHandledExceptionNotify
 0001:00036B90       CallHandledExceptionNotifyEvents
 0001:00036FC4       CallModuleEvent_AttachedFilesRequest
 0001:00037168       CallModuleEvent_CustomButtonClickNotify
 0001:00036EF4       CallModuleEvent_CustomDataRequest
 0001:00037094       CallModuleEvent_CustomWebFieldsRequest
 0001:00036B9C       CallModuleEvent_ExceptionActionNotify
 0001:00036D14       CallModuleEvent_ExceptionErrorNotify
 0001:00036A04       CallModuleEvent_ExceptionNotify
 0001:00036ACC       CallModuleEvent_HandledExceptionNotify
 0001:00037234       CallModuleEvent_PasswordRequest
 0001:00036E88       CallPasswordRequest
 0001:000391C4       CallStackByAddresses
 0001:0003D398       CallStackDialogProc
 0001:0004A278       CallWriteIntraWebText
 0001:000501A4       Call_HookedExceptionObject
 0001:0004FF40       Call_HookedRaise
 0001:000501D0       Call_HookedRtlUnwind
 0001:00041AF0       CalsCoordinates
 0002:00009F11       CanAttachScreenshot
 0002:00009F0D       CanAttachScreenshot_Show
 0001:000514B0       CanCallUnhandledException
 0002:00009F12       CanCopy
 0002:00009F0E       CanCopy_Show
 0001:00037BE0       CanExit
 0002:00009ED5       CanHookLibraries
 0002:00006038       CannotProcessMessagesExceptions
 0002:0000A0E0       CannotUseThread
 0001:0004DB64       CanPauseThisThread
 0002:00009F0C       CanSendError_Show
 0002:00009F10       CanSendMessage
 0002:00009F0F       CanSupport_Show
 0002:0000A18C       CaptionFontName
 0002:0000A3C8       CAPTION_HEIGHT
 0002:00001C18       cBase64Codec
 0002:00001BD8       cBase64Codec
 0001:0003B398       CenterOnActiveWndMonitor
 0001:00039E60       CenterWindow
 0002:00009E90       CGIHandleException
 0002:00009E3C       CGIOutputFile
 0001:000539EC       ChangeFinalizationOrder
 0001:000408A8       ChangeLogUserEmail
 0002:00004844       chars
 0001:000542E8       CheckCrc32
 0001:000068C0       CheckDirectoryExists
 0001:0001ACD8       CheckError
 0001:0000EB10       CheckFail
 0001:000537F4       CheckForMemoryLeaks
 0001:00034BC8       CheckForResult
 0001:0000670C       CheckIntoIDE
 0001:00006630       CheckKey
 0001:0002DFFC       CheckMagicCode
 0001:00001290       CheckOurPointer
 0001:00031B00       ClearInternalError
 0002:0000A331       ClickLinkActive
 0001:0002568C       ClickOnSign
 0001:0002FE4C       CloneObject
 0001:00000878       CloseClipboard
 0001:000004D8       CloseHandle
 0001:00035F00       CloseLogFile
 0001:0002DFA0       ClosePrinter
 0001:00043CC0       CloseSendDialog
 0001:0000DB78       closesocket
 0001:00010EA0       CloseZipFile
 0002:00009E98       CLXHandleException
 0002:00009E9C       CLXShowException
 0002:00006080       ColIdx
 0002:0000A364       ColWidths
 0001:00000780       CombineRgn
 0001:00055258       CommCtrl
 0001:00055540       CommDlg
 0001:00042BB0       CommonSaveToStream
 0001:00037FC0       CompareEurekaFunctions
 0001:00032B48       CompareModulesFunctions
 0001:00032ED4       CompareProcessesFunctions
 0001:0004850C       CompleteIP
 0001:0001C988       CompleteNumber
 0001:00021514       CompleteStr
 0001:0002E598       CompleteStr
 0001:000496DC       CompleteString
 0001:0001829C       Compress
 0001:0001289C       compressBound
 0001:000091AC       ComputerName
 0001:0002F94C       ComputerName
 0001:0000DB80       connect
 0001:00005F48       ConvertAddress
 0001:00000E90       ConvertAddress
 0001:00020C6C       ConvertNotDosText
 0001:0001978C       ConvertSpecialHTMLChars
 0001:00000AB0       CopyMemory
 0001:00000880       CopyRect
 0001:00037528       CopyStrings
 0001:00001B90       CountAllLeaks
 0001:0003E224       CPUDialogProc
 0001:0002F34C       CPUToRTF
 0002:000019C4       Crc16Tab
 0001:000129F4       crc32
 0002:00009940       crc_table
 0002:00001BC4       crc_table_computed
 0001:000426F4       Create8bitBitmap
 0001:00000788       CreateBitmap
 0001:00000790       CreateCompatibleBitmap
 0001:00000798       CreateCompatibleDC
 0001:00000AE8       CreateDialog
 0001:00039AF4       CreateDialogFonts
 0001:00000888       CreateDialogParam
 0001:000007A0       CreateDIBSection
 0001:0003AC2C       CreateExceptionReport
 0001:000004E0       CreateFile
 0001:000004E8       CreateFileMapping
 0001:000007A8       CreateFont
 0001:000007B0       CreateFontIndirect
 0001:0004A284       CreateGeneralText
 0001:00033FB8       CreateHTMLByLayout
 0001:00036634       CreateHTMLFile
 0001:0003AF10       CreateLeakReport
 0001:0004B510       CreateLogText
 0001:000102BC       CreateMXQuery
 0001:00042314       CreateOctreeNode
 0001:000007B8       CreatePalette
 0001:000004F0       CreateProcess
 0001:000007C0       CreateRectRgn
 0001:000007C8       CreateRectRgnIndirect
 0001:000007D0       CreateSolidBrush
 0001:00034390       CreateTemplateFile
 0001:0003B0B0       CreateThreadStr
 0001:00044E1C       CreateTmpLogFile
 0001:00030310       CreateVirtualFile
 0001:00036700       CreateXMLLogCopy
 0001:00010C4C       CreateZipFile
 0001:000453F4       CreateZIPFile
 0001:00052CE8       Create_EurekaLogUnitsList
 0002:00000934       CriticalError
 0002:0000605C       CriticalExceptObject
 0002:00009EC4       CurrentAsmErrorLine
 0002:00009ECC       CurrentAsmErrorText
 0002:00009ED0       CurrentCPUErrorText
 0002:00009F64       CurrentDialog
 0001:00051660       CurrentEurekaLogOptions
 0002:00009EC8       CurrentGeneralErrorText
 0002:00009E38       CurrentOptions
 0002:00009F7C       CurrentProcessWindowsList
 0002:00009F30       CurrentRequestValue
 0002:00006048       CurrentStackList
 0002:00009DDC       CustomButtonClickNotify
 0002:00009DD0       CustomDataRequest
 0002:00009EFC       CustomExceptMessage
 0002:00009DD8       CustomWebFieldsRequest
 0002:00009D44       CV
 0002:00009F78       DbgSection
 0002:0000A0B8       DebugHook_Assigned
 0001:0004699C       DebugToStr
 0001:0000AF68       DecodeNameString
 0001:00018EE8       Decrypt
 0001:0001382C       deflate
 0001:00013AF0       deflateEnd
 0001:00013240       deflateInit_
 0001:00000890       DefWindowProc
 0001:000004F8       DeleteCriticalSection
 0001:000007D8       DeleteDC
 0001:00045564       DeleteExtraFiles
 0001:00000500       DeleteFile
 0001:000007E0       DeleteObject
 0001:00042220       DeleteTree
 0001:0003047C       DeleteVirtualFile
 0001:00039D3C       DestroyDialogFonts
 0001:00000898       DestroyWindow
 0002:0000A3A4       DetailsActive
 0001:0003B970       DetailsState
 0001:000008A0       DialogBoxParam
 0002:0000A3B0       DialogHeight
 0002:0000A0C8       DialogType
 0002:00000938       Digits
 0001:0003436C       DirectoryExists
 0001:00002664       DisableMemoryLeaksCheck
 0001:000008A8       DispatchMessage
 0001:00055578       Dlgs
 0001:000397AC       DlgTemplate
 0002:0000709C       DllList
 0001:0000EFE4       Done
 0001:00002850       Done
 0001:000094E8       Done
 0001:00054BFC       Done
 0001:000106F0       Done
 0001:000529D0       DoneCheckFreeze
 0002:00009E8C       DoneExcept
 0001:000539A0       DoneExceptAddr
 0001:0001A7B4       DoneLib
 0001:000023F0       DoneShareMem
 0001:00024E50       DrawBmp
 0001:000259D4       DrawBottom
 0001:000406C4       DrawButton
 0001:00040558       DrawClickHere
 0001:000404D4       DrawControl
 0001:00025960       DrawFrame
 0001:000008B0       DrawIconEx
 0001:00025A7C       DrawItem
 0001:00025A28       DrawLine
 0001:0003E7E0       DrawSupportLink
 0001:000008B8       DrawText
 0002:00009F13       DuplicatedException
 0001:00000508       DuplicateHandle
 0001:000192B8       EBase64
 0001:000056F0       EConsts
 0001:00009540       ECore
 0001:0000DB30       EDebug
 0001:0002D4CC       EDisAsm
 0001:00018FDC       EEncrypt
 0001:00018C88       EHash
 0001:0000F0E0       EHook
 0001:000211A4       ElaborateString
 0001:0001AF98       ElaborateURL
 0001:0001B100       ElaborateWebPage
 0001:0000F1F0       ELang
 0001:00002910       ELeaks
 0001:00026098       EListView
 0001:00024D78       ELogManager
 0001:000008C0       EmptyClipboard
 0002:00000034       EMsgs
 0001:000024D8       EnableMemoryLeaksCheck
 0001:000008C8       EnableWindow
 0001:00042144       Encode
 0002:00004824       EncodedChars
 0001:00044F80       EncodeURL
 0001:000008D0       EndDialog
 0001:000008D8       EndPaint
 0001:00000510       EnterCriticalSection
 0001:0002DF90       EnumPrinters
 0001:00000518       EnumSystemLocales
 0001:000008E0       EnumWindows
 0001:00031E00       EnumWindowsProc
 0001:00031DA8       EnumWindowsProc
 0001:00031F10       EnumWindowsProc
 0001:0000A4B4       Eof
 0001:00043020       Error
 0001:000022B8       Error
 0002:0000080C       EShowOptions
 0001:00010750       ESockets
 0001:00002DAC       ETypes
 0002:0000002C       EurekaLogCurrentVersion
 0002:00009F2C       EurekaLogList
 0001:000438D0       EurekaLogSendEmail
 0002:00005B40       EurekaLogUnits
 0002:00009F54       EurekaLogUnitsList
 0001:000379F4       EurekaLog_AttachedFilesRequestEvent
 0001:00050804       EurekaLog_CallCreateThread
 0001:0005005C       EurekaLog_CallExceptObject
 0001:0005093C       EurekaLog_CallExitThread
 0001:0004FF0C       EurekaLog_CallGeneralRaise
 0001:00050898       EurekaLog_CallResumeThread
 0001:00037B3C       EurekaLog_CustomButtonClickEvent
 0001:00037950       EurekaLog_CustomDataRequestEventEx
 0001:00037A98       EurekaLog_CustomWebFieldsRequestEvent
 0001:00037808       EurekaLog_ExceptionActionNotifyEvent
 0001:000378AC       EurekaLog_ExceptionErrorNotifyEvent
 0001:000376C0       EurekaLog_ExceptionNotifyEvent
 0001:00037764       EurekaLog_HandledExceptionNotifyEvent
 0001:000375AC       EurekaLog_PasswordRequestEvent
 0001:000375F0       EurekaLog_PasswordRequestEventEx
 0002:00000594       EVals
 0002:000008CC       EVariablesOptions
 0001:000205A4       EWebTools
 0002:00009DC4       ExceptionActionNotify
 0002:00009E0C       ExceptionCriticalSection
 0002:00009DC8       ExceptionErrorNotify
 0001:000310BC       ExceptionLine
 0001:00055004       ExceptionLog
 0001:00051D1C       ExceptionManager
 0002:00009DBC       ExceptionNotify
 0002:00009E44       ExceptionNumber
 0002:00009F6C       ExceptionsTime
 0002:00009F70       ExceptionTime
 0001:000348F4       ExceptionTypeByAddr
 0001:0004F5AC       ExceptNotify
 0001:000467C4       ExceptNotifyAfter1
 0001:000468C0       ExceptNotifyAfter2
 0001:000468D4       ExceptNotifyAfter3
 0001:00000520       ExitThread
 0001:00020B4C       EXMLBuilder
 0001:00005A18       ExpandEnvVars
 0001:00038044       ExportedFunctions
 0001:00035A94       ExtractDebugData
 0001:00000B88       ExtractFileName
 0001:000521A4       ExtractGZipStream
 0001:00036070       ExtractList
 0001:00035604       ExtractStr
 0001:000063FC       ExtractStringsEx
 0001:0003AA60       ExtractThreadByList
 0001:00022814       ExtractValue
 0001:00019448       EZip
 0001:0001818C       EZlib
 0002:0000A168       fActive
 0002:00006078       fActivePage
 0002:0000A184       fBigFont
 0002:0000A16C       fCaptionFont
 0002:0000A160       fDlgBack
 0001:00049A1C       FetchStr
 0002:0000A174       fFixedFont1
 0002:0000A178       fFixedFont2
 0001:00000528       FileTimeToDosDateTime
 0001:00000530       FileTimeToLocalFileTime
 0001:0003688C       FillAttachedList
 0001:000008E8       FillRect
 0001:00032F90       FillThreadsCount
 0001:00020554       Finalization
 0001:000554C8       Finalization
 0001:00020B1C       Finalization
 0001:00026068       Finalization
 0001:0000DA94       Finalization
 0001:00055A10       Finalization
 0001:00055A48       Finalization
 0001:000028D8       Finalization
 0001:0000DB40       Finalization
 0001:00002B2C       Finalization
 0001:00055548       Finalization
 0001:00002D7C       Finalization
 0001:0000DBE0       Finalization
 0001:0000566C       Finalization
 0001:000094EC       Finalization
 0001:00019418       Finalization
 0001:00019288       Finalization
 0001:00018FAC       Finalization
 0001:0002D430       Finalization
 0001:00024D48       Finalization
 0001:00000460       Finalization
 0001:00018C58       Finalization
 0001:00000B00       Finalization
 0001:0001815C       Finalization
 0001:0000F08C       Finalization
 0001:00055448       Finalization
 0001:0000F1C0       Finalization
 0001:00055410       Finalization
 0001:000553D8       Finalization
 0001:00055360       Finalization
 0001:00055228       Finalization
 0001:00054E54       Finalization
 0001:00055480       Finalization
 0001:00055510       Finalization
 0001:000106F8       Finalization
 0002:00007024       FinalizationProc
 0001:00000538       FindClose
 0001:00044D9C       FindEOFLine
 0001:0001ABC8       FindErrorMessage
 0001:0004A1DC       FindException
 0001:00000540       FindFirstFile
 0001:00033234       FindFullPath
 0001:000359F4       FindFunction
 0001:0002E010       FindHandled
 0001:0000160C       FindLeakAddress
 0001:0000181C       FindLeakClassName
 0001:00001564       FindLeakSons
 0001:00054224       FindMainInstance
 0001:00032304       FindModuleType
 0001:000014C0       FindNextValidLeak
 0001:0000A624       FindParam
 0001:00032EDC       FindProcess
 0001:00000548       FindResource
 0001:000249BC       FindSection
 0001:0001A328       FindSelected
 0001:000008F0       FindWindow
 0002:0000A190       FixedFontName1
 0002:0000A194       FixedFontName2
 0002:0000A188       FixedFontSize
 0002:0000A3CC       FixedTmpOptionsFile
 0002:0000A17C       fLinkFont
 0002:0000A180       fLinkFont2
 0002:0000A30C       fListViewItems
 0002:00005224       FloatingPointOpcodes
 0001:00000550       FlushInstructionCache
 0002:0000A164       fMemoBack
 0002:0000A2EC       fMonitor
 0002:0000A2F4       fMonitorInfo
 0001:00051C68       ForceApplicationTermination
 0002:0000AC60       Form1
 0001:00049EB0       FormatComplete
 0001:0000D490       FormatProcName
 0001:000008F8       FrameRect
 0001:00001B64       FreeAllLeaks
 0001:0002FE80       FreeClonedObject
 0001:00000558       FreeLibrary
 0001:0002E280       FreeOutOfMemoryCache
 0001:00042FE4       FreeScreenshot
 0002:00009ED8       FreezeThread
 0001:00055A40       frmMain
 0002:0000A2F0       fSendBmp
 0002:00009D98       FtpOpenFile
 0001:0001FF84       FTPUploadFiles
 0002:0000A170       fVariableFont
 0001:0003E01C       GeneralDialogProc
 0001:0004FCEC       GeneralRaise
 0001:0002EB4C       GeneralToRTF
 0001:0005184C       GenerateCallStack
 0001:00045F18       GenerateCustomWebFieldsString
 0001:00034248       GenerateHTML
 0001:0001F3D8       GenerateMultipartBoundary
 0001:0001B840       GenerateMultipartBoundary
 0001:0001F508       GenerateRequestBody
 0001:0001B994       GenerateRequestBody
 0001:00000560       GetACP
 0001:000476BC       GetActiveControlClass
 0001:000476D4       GetActiveControlText
 0001:000475DC       GetActiveFormClass
 0001:00047628       GetActiveFormText
 0001:0003B118       GetActiveMonitorData
 0001:00048648       GetAdapterInfo
 0001:00032F5C       GetAllocatedMemory
 0001:000481D8       GetApplicationName
 0001:00031E78       GetApplicationRect
 0001:000475BC       GetApplicationUpTime
 0001:0000E348       GetAsmSize
 0001:000395A8       GetBaseOfStack
 0001:0004063C       GetBottonWidth
 0001:00000AE4       GetBValue
 0001:00039484       GetCallStackByAddresses
 0001:00030DA8       GetCallStackDump
 0001:00000900       GetClassInfo
 0001:00000908       GetClassName
 0001:00025EE8       GetColumnAlign
 0001:00025EBC       GetColumnCount
 0001:00000568       GetCommandLine
 0001:000498F4       GetCompanyName
 0001:00047560       GetCompilationDate
 0001:0002E620       GetCompleteTimeStr
 0001:00000570       GetComputerName
 0001:0004F0B0       GetControlClass
 0001:0004F108       GetControlText
 0001:00018238       GetCRC16
 0001:000181F0       GetCRC32
 0001:000007E8       GetCurrentObject
 0001:00049CD4       GetCurrentPrinterHandle
 0001:00000578       GetCurrentProcess
 0001:00000580       GetCurrentProcessId
 0001:000395B0       GetCurrentStackPointer
 0001:00051D14       GetCurrentStackPointer
 0001:00000588       GetCurrentThread
 0001:00000590       GetCurrentThreadId
 0001:0002FEA0       GetCurrentTopOfStack
 0001:0004971C       GetCurrentUserPrivileges
 0001:00000910       GetCursor
 0001:00000918       GetCursorPos
 0001:00001398       GetDataCaller
 0001:00000920       GetDC
 0001:00038EA0       GetDebugDetail
 0001:00046A3C       GetDebugInfoEx
 0001:00035D8C       GetDebugInfosByAddr
 0001:000357E0       GetDebugPartialInfo
 0001:00049AB0       GetDefaultPrinter
 0001:00000928       GetDesktopWindow
 0001:000007F8       GetDeviceCaps
 0001:0003E42C       GetDialogState
 0001:000007F0       GetDIBits
 0001:00047F9C       GetDiskInfo
 0001:00049630       GetDisplayDPI
 0001:0004846C       GetDisplayMode
 0001:00000930       GetDlgItem
 0001:0000FEBC       GetDNSList
 0001:00010078       GetDomain
 0001:000101E4       GetDomainName
 0001:0004B1F8       GetDump
 0001:0004AF38       GetEAX
 0001:0004AF90       GetEBX
 0001:0004AFE8       GetECX
 0001:0004B0F0       GetEDI
 0001:0004072C       GetEditText
 0001:0004B040       GetEDX
 0001:00037DF4       GetEF
 0001:0002BE4C       GetEffectiveAddress
 0001:0004B1A0       GetEIP
 0001:0004B468       GetEmptySection
 0001:00000598       GetEnvironmentVariable
 0001:000059AC       GetEnvVariable
 0001:0004B098       GetESI
 0001:00030D98       GetESP
 0001:0004B148       GetESP
 0001:00038504       GetEurekaLogModuleVersion
 0001:000478D0       GetExceptionAddress
 0001:000478B8       GetExceptionDate
 0001:00047DA8       GetExceptionMessage
 0001:00047904       GetExceptionModuleName
 0001:000479C4       GetExceptionModuleVersion
 0001:00047A38       GetExceptionType
 0001:000396BC       GetExceptMessage
 0001:000005A0       GetExitCodeProcess
 0001:000005A8       GetExitCodeThread
 0001:00019BC8       GetFieldValue
 0001:000005B0       GetFileAttributes
 0001:0001AB5C       GetFileContents
 0001:0001F49C       GetFileContents
 0001:00010CA4       GetFileSize
 0001:00032B14       GetFileSize
 0001:0001FF48       GetFileSize
 0001:00048B14       GetFileVersionEx
 0001:00000760       GetFileVersionInfo
 0001:00000768       GetFileVersionInfoSize
 0001:00000938       GetFocus
 0001:00000940       GetForegroundWindow
 0001:00000F08       GetFramesCallStackDump
 0001:00048080       GetFreeDisk
 0001:00047F0C       GetFreeMemory
 0001:00046D04       GetFunctionAsm
 0001:0000E480       GetFunctionSize
 0001:000066C4       GetGMT
 0001:00000AE0       GetGValue
 0001:000005B8       GetHandleInformation
 0001:0000DBB0       gethostbyname
 0001:0000DBB8       gethostname
 0001:0001B1B8       GetHTTPResponse
 0001:0001F7DC       GetHTTPResponse
 0001:00000948       GetIconInfo
 0001:0000D7B0       GetImageNtHeaders
 0001:00048D08       GetIndexKeyName
 0001:0004F9B8       GetIntraWebExceptionType
 0001:00024E28       GetItemRect
 0001:0003D34C       GetItemText
 0001:0004786C       GetLanguageString
 0001:000005C0       GetLastError
 0001:000015C0       GetLeakCount
 0001:0001A538       GetListDefault
 0001:0001A1B4       GetListValue
 0001:00047740       GetLocaleDataA
 0001:00047700       GetLocaleDataW
 0001:000005D0       GetLocaleInfo
 0001:000005D8       GetLocaleInfoA
 0001:000005E0       GetLocaleInfoW
 0001:000005C8       GetLocalTime
 0001:00006024       GetLongNameFromShort
 0001:00031DE0       GetMainWindow
 0001:00000800       GetMapMode
 0001:00018B58       GetMD5
 0001:00005F80       GetModifiedDate
 0001:00010B48       GetModifiedDate
 0001:000326D4       GetModuleDescriptionAndVersion
 0001:000005E8       GetModuleFileName
 0001:00000358       GetModuleHandle
 0001:000005F0       GetModuleHandle
 0001:000324C8       GetModulePath
 0001:000325A4       GetModuleSize
 0001:00032E44       GetModulesList
 0001:00032CB4       GetModulesWin9X
 0001:00032B50       GetModulesWinNT
 0001:00032634       GetModuleVer
 0001:000369B0       GetModule_ProcedureEvent
 0001:0003B374       GetMonitorWorkAreaFromActiveWnd
 0001:0003B350       GetMonitorWorkAreaFromWnd
 0001:0003B26C       GetMonitorWorkAreaFromWndEx
 0001:000103E4       GetMXBestRecord
 0001:00010344       GetMXRecord
 0001:000104D4       GetMXServerFromEmail
 0001:00048990       GetNetworkData
 0001:00049A50       GetNTDefPrinter
 0001:00000808       GetObject
 0001:000013AC       GetObjectCaller
 0001:00042684       GetOptimizedPalette
 0001:0001A414       GetOptionsDefault
 0001:00002274       GetOptionsFromExeFile
 0001:00019FB4       GetOptionsValue
 0001:00030980       GetOSBuild
 0001:000478A0       GetOSCharset
 0001:00047894       GetOSLanguage
 0001:0003069C       GetOSType
 0001:000476EC       GetOSUpdate
 0001:0002E264       GetOutOfMemoryCache
 0001:0004225C       GetPaletteColors
 0001:000474BC       GetParameters
 0001:00038854       GetPassword
 0001:00000810       GetPixel
 0001:0002DFA8       GetPrinterDriver
 0001:00049D48       GetPrinterStr
 0001:000005F8       GetPriorityClass
 0001:00000600       GetPrivateProfileString
 0001:00000608       GetProcAddress
 0001:00033738       GetProcessesList
 0001:0004828C       GetProcessor
 0001:00032A80       GetProcessThreads
 0001:00005B14       GetProfileFolder
 0001:00000610       GetProfileString
 0001:00000F80       GetRawCallStackDump
 0001:000021D8       GetRawOptions
 0001:00005EA8       GetReadableSize
 0001:00000C10       GetReadableSize
 0001:0003619C       GetRealFileName
 0001:0002B7F4       GetRefAddress
 0001:0002B954       GetRegName
 0001:00002190       GetResourceData
 0001:000349D8       GetResourceData
 0001:00000ADC       GetRValue
 0001:00034D20       GetSourceInfoByAddr
 0001:0004B3D8       GetStack
 0001:000481C0       GetStartDate
 0001:00000618       GetStartupInfo
 0001:00000818       GetStockObject
 0001:00035490       GetSymbolAddr
 0001:00000950       GetSysColor
 0001:00000620       GetSystemDefaultLangID
 0001:00000958       GetSystemMetrics
 0001:00000820       GetSystemPaletteEntries
 0001:00000628       GetSystemTime
 0001:00048430       GetSystemUpTime
 0001:0001997C       GetTagValue
 0001:00000630       GetTempPath
 0001:00019DA8       GetTextAreaValue
 0001:00000828       GetTextExtentPoint32
 0001:0003A318       GetTextHeight
 0001:0003A470       GetTextWidth
 0001:00000638       GetThreadContext
 0001:0003AAFC       GetThreadData
 0001:0004F940       GetThreadParams
 0001:00000640       GetThreadPriority
 0001:00000648       GetTickCount
 0001:00000384       GetTlsSize
 0001:00000498       GetTokenInformation
 0001:00030DA0       GetTopOfStack
 0001:00048120       GetTotalDisk
 0001:00047E7C       GetTotalMemory
 0001:000498E0       GetUserEmail
 0001:000004A0       GetUserName
 0001:00005BD0       GetUserPath
 0001:0001B904       GetValueFromIndex
 0001:00032AB8       GetVersionNumber
 0001:00048ED8       GetVideoCardStr
 0001:0000DF4C       GetVirtualMethod
 0001:00031C4C       GetWindowClassName
 0001:00000960       GetWindowDC
 0001:00000968       GetWindowLong
 0001:00000970       GetWindowPlacement
 0001:00000978       GetWindowRect
 0001:00000650       GetWindowsDirectory
 0001:00000980       GetWindowText
 0001:00000988       GetWindowThreadProcessId
 0001:00006900       GetWorkingFile
 0001:00000658       GlobalAlloc
 0001:00000660       GlobalFree
 0001:00000668       GlobalLock
 0001:00000670       GlobalMemoryStatus
 0002:0000A7CC       GlobalSendValues
 0001:00000678       GlobalUnlock
 0002:0000A144       Global_AttachedFiles
 0002:0000A0EB       Global_CloseDialog
 0002:0000A138       Global_CurrentEvent
 0002:0000A14C       Global_DataFields
 0002:0000A110       Global_ExceptionRecord
 0002:0000A0E8       Global_Execute
 0002:0000A0E9       Global_Handled
 0002:00006070       Global_IntoHandleException
 0002:0000A154       Global_IntraWebText
 0002:0000A140       Global_LastInitPassword
 0002:0000A150       Global_Module
 0002:0000A13C       Global_Password
 0002:0000A0EA       Global_Retry
 0002:0000A148       Global_WebFields
 0002:0000A158       Global_WebTextID
 0001:0004FB80       GoNotify
 0002:00005064       GroupsOpcodes
 0002:000051A4       GroupsOperands
 0001:0005389C       HandleAnyExceptionAddr
 0002:00009E48       HandleAnyExceptionAddr_Variable
 0001:00001BB8       HandleAnyLeak
 0001:00053940       HandleAutoExceptionAddr
 0002:00009E50       HandleAutoExceptionAddr_Variable
 0001:000258EC       HandleBackgroundState
 0002:00009FB0       HandledCache
 0002:00009FAC       HandledCacheCount
 0002:0000A0A0       HandledCacheCriticalSection
 0002:00009DC0       HandledExceptionNotify
 0001:00001370       HandleError
 0001:000538E8       HandleOnExceptionAddr
 0002:00009E4C       HandleOnExceptionAddr_Variable
 0001:00031C10       HasWindowASize
 0002:0000700C       HInstance
 0001:00000AAC       HiWord
 0001:00037D58       HookBPLProcedureByAddr
 0001:00037DCC       HookBPLProcedureBySymbol
 0001:0000EB74       HookDllProcedure
 0001:0005095C       HookedCreateThread
 0001:000501AC       HookedExceptionObject
 0001:0005037C       HookedExceptProc
 0001:00050DD4       HookedExitThread
 0001:00050EC4       HookedHttpExtensionProc
 0002:000070A0       HookedMethodsList
 0002:00007098       HookedProcedures
 0001:0005003C       HookedRaise
 0001:00050BB8       HookedResumeThread
 0001:000505A0       HookedRTLThreadProc
 0001:000502C4       HookedRtlUnwind
 0001:00050448       HookedThreadExecute
 0001:000506D0       HookedThreadProc
 0001:00050E90       HookedWriteClientProc
 0001:000502EC       HookedWriteFile
 0001:00051E58       Hooked_CGIHandleServerException
 0001:00051F6C       Hooked_CLXHandleException
 0001:00051F9C       Hooked_CLXShowException
 0001:0005263C       Hooked_DoneExcept
 0001:0005260C       Hooked_IndyThreadHandleException
 0001:00051FF0       Hooked_IntraWebCreateServer
 0001:000522EC       Hooked_IntraWebSendResponse
 0001:00051E88       Hooked_ISAPIHandleServerException
 0001:00052558       Hooked_NTServiceLogMessage
 0001:00051EB8       Hooked_VCLHandleException
 0001:00051F2C       Hooked_VCLShowException
 0001:000541F4       HookingModuleName
 0001:00054218       HookingRTLModuleName
 0001:00053B98       HookLastFInit
 0001:00053B10       HookLastInit
 0001:0000E75C       HookProcedure
 0001:0000E870       HookProcedureEx
 0001:00037CC0       HookSymbolProcedure
 0001:0000DF98       HookVirtualMethod
 0001:00053BA8       Hook_InitializationAndFinalization
 0001:00053D44       Hook_OnExceptionEvents
 0001:00043CFC       HostName
 0002:000036E0       HTMLChars
 0002:000033E0       HTMLDelimiters
 0001:0000DB88       htons
 0002:00009D74       HttpAddRequestHeaders
 0002:00009D84       HttpEndRequest
 0002:00009D70       HttpOpenRequest
 0002:00009D88       HttpQueryInfo
 0002:00009D78       HttpSendRequest
 0002:00009D7C       HttpSendRequestEx
 0001:0001FA90       HTTPUploadFiles
 0002:00006088       IDATHeader
 0001:000420FC       IDATWrite
 0002:0000A0DC       IDC_CURSOR
 0001:0002E3E8       ifelseStr
 0001:0002E460       ifStr
 0002:00006094       iLevel
 0001:000250E0       ImageList_Add
 0001:000250D8       ImageList_Create
 0001:000250E8       ImageList_Destroy
 0001:00055390       Imm
 0001:00046BA4       ImmidiateDataProc
 0002:00009F50       InactiveThreads
 0001:00008FC0       IncludeLastBackslash
 0002:00009F80       IndyHooked
 0002:00009E88       IndyThread_HandleException
 0002:00009E6C       Indy_OnException
 0001:00014C54       inflate
 0001:00015B0C       inflateEnd
 0001:00010874       InflateInit
 0001:00014A1C       inflateInit_
 0001:00014894       inflateReset
 0001:00005C50       IniDir
 0001:000094DC       Init
 0001:000106E8       Init
 0001:0000EFB0       Init
 0001:00002684       Init
 0001:000543EC       Init
 0001:00052924       InitCheckFreeze
 0001:00042000       InitDeflate
 0001:00000680       InitializeCriticalSection
 0002:00006050       Initialized
 0002:00000B64       Initialized
 0001:00000410       InitializeModule
 0001:00018E48       InitKey
 0001:0001A7CC       InitLib
 0001:0004283C       InitScreenshot
 0001:000022FC       InitShareMem
 0001:0000038C       InitThreadTLS
 0001:0003B3EC       InsertColumn
 0001:0002E168       InsertHandled
 0002:00007058       InstallNewMemoryManager
 0001:0005420C       InstanceModuleName
 0001:0000F374       InternalCleanup
 0001:00031240       InternalCriticalError
 0002:00009F24       InternalErrorCode
 0002:00009F28       InternalErrorMsg
 0001:0004DDC0       InternalExceptNotify
 0001:00033954       InternalFileExists
 0002:00007084       InternalIntoIDE
 0001:0004302C       InternalSendMail
 0001:0000F344       InternalStartup
 0001:000019F8       Internal_AddLeak
 0001:000530B8       Internal_AddLeak
 0001:000537E8       Internal_Finalization
 0001:000537D0       Internal_MultiFreeProc
 0001:000537B8       Internal_OverrunProc
 0001:00052D64       Internal_ResetLeaks
 0001:000019E4       Internal_ResetLeaks
 0001:00053238       Internal_ShowLeaks
 0001:00001AA8       Internal_ShowLeaks
 0002:00009D8C       InternetCloseHandle
 0002:00009D6C       InternetConnect
 0002:00009DA8       InternetGetConnectedState
 0002:00009D9C       InternetGetLastResponseInfo
 0002:00009D68       InternetOpen
 0002:00009DA0       InternetOpenUrl
 0002:00009D90       InternetQueryOption
 0002:00009DA4       InternetReadFile
 0002:00009D94       InternetSetOption
 0002:00009D80       InternetWriteFile
 0002:00009EA9       IntoFinalization
 0001:00006704       IntoIDE
 0002:00009EA8       IntoInitialization
 0002:00009EB0       IntraWebApplication
 0002:00009EB8       IntraWebCompressedPage
 0002:00009EB4       IntraWebServerController
 0001:00053C64       IntraWeb_BPL
 0002:00009E60       IntraWeb_CreateServer
 0002:00009EC0       IntraWeb_NewEvent
 0001:0004FB1C       IntraWeb_OnExceptionEvent
 0001:0004FA9C       IntraWeb_OnExceptionEvent_New
 0001:0004FA14       IntraWeb_OnExceptionEvent_Old
 0002:00009E68       IntraWeb_OnException_New
 0002:00009E64       IntraWeb_OnException_Old
 0002:00009E78       IntraWeb_SendResponse
 0002:00009E74       IntraWeb_ShowMessage
 0002:00009EBC       IntraWeb_Version
 0001:00000990       InvalidateRect
 0001:00000998       InvalidateRgn
 0001:0000DB90       ioctlsocket
 0001:000014D0       IsALeakChild
 0001:00031EF8       IsANewProcessWindow
 0001:00030118       IsAParent
 0001:00030008       IsAParentClassStr
 0001:00000DC4       IsAParentClassStr
 0001:000301DC       IsAParentClassStr_Unsafe
 0001:00030188       IsAParents
 0001:000300F0       IsAParentStr
 0001:000302BC       IsAParentStr_Unsafe
 0002:00009E94       ISAPIHandleException
 0002:00009DFC       ISAPI_HttpExtensionProc
 0002:00009E04       ISAPI_Proc
 0002:0000603C       ISAPI_SendError
 0002:00009E00       ISAPI_WriteClientProc
 0001:00031C98       IsApplicationWindow
 0001:00000688       IsBadReadPtr
 0001:0004DB38       IsBorlandThread
 0001:00033920       IsCGI
 0001:0004A144       IsCompatibleException
 0001:0002FE1C       IsCompatibleVersion
 0001:000024C0       IsCompiledWithPackages
 0001:000348E0       IsCompiledWithPackages
 0001:00031EE0       IsCurrentProcessWindow
 0001:0002FD1C       IsDebugged
 0001:0000A4C8       IsDecDigit
 0001:00030D84       IsDelphiException
 0002:0000A3AC       IsDialogShowed
 0001:000198E8       IsEnd
 0001:00051D0C       IsEurekaLogActive
 0001:00051CAC       IsEurekaLogActiveInThread
 0001:000384D0       IsEurekaLogCompatibleModule
 0001:00051658       IsEurekaLogInstalled
 0001:000384AC       IsEurekaLogModule
 0001:0003841C       IsEurekaLogModule_New
 0001:00038304       IsEurekaLogModule_Old
 0001:00037E04       IsExceptionHandled
 0001:000068E4       IsFileOK
 0002:0000A0C9       IsFilterDialog
 0001:00033B94       IsGUI
 0001:0004F538       IsHandledSafeCallException
 0001:00052124       IsHTMLPage
 0001:000009A0       IsIconic
 0001:000020AC       IsIntoIDE
 0001:00033B5C       IsIntraWeb
 0001:00033B20       IsISAPI
 0001:00034884       IsLocalStorageProc
 0001:0004DB28       IsMainThread
 0001:00031D08       IsMainWindow
 0001:000302D8       IsManageableObject
 0002:00007060       IsMMHost
 0001:00032224       IsModuleLibrary
 0001:00000BCC       IsObjectCreation
 0001:00039FCC       ISODateTime
 0001:00006888       IsReadableFile
 0001:0001AB40       IsRealFile
 0001:000348D4       IsRTLCompiledWithStackFrames
 0001:000348A4       IsStackFramesProc
 0001:00000C98       IsValidBlockAddr
 0001:00005F30       IsValidBlockAddr
 0001:00000D74       IsValidClass
 0001:0002FF08       IsValidClass
 0001:0000FE30       IsValidDNS
 0001:00040864       IsValidEmail
 0001:0002FD8C       IsValidHandle
 0001:0002E388       IsValidModule
 0001:0002FFDC       IsValidObject
 0001:0002FDEC       IsValidRunningThread
 0001:00033B68       IsWeb
 0001:00030648       IsWin95
 0001:0000EAB0       IsWin9xDebugThunk
 0001:000339C4       IsWinCGI
 0001:000009A8       IsWindow
 0001:0004DB54       IsWindowsThread
 0001:000009B0       IsWindowVisible
 0001:00030664       IsWinNT4
 0001:00009070       IsWinVista
 0001:00030680       IsWinVista
 0001:000067F0       IsWritableFile
 0001:00034940       Is_HandleOnException_Handled
 0001:0000E190       JumpToMem
 0002:00009DEC       Kernel_CreateThread
 0002:00009DF4       Kernel_ExitThread
 0002:00009DE4       Kernel_RaiseException
 0002:00009DF0       Kernel_ResumeThread
 0002:00009DE8       Kernel_RtlUnwind
 0002:00009DF8       Kernel_WriteFile
 0002:00009D4C       KeyData
 0001:00032040       KillApplication
 0001:000009B8       KillTimer
 0002:00009E40       LanguageStr
 0002:0000A0C4       LastBugID
 0002:00009EF4       LastDelphiException
 0002:00009F84       LastDumpCriticalSection
 0002:0000707C       LastEurekaVersion
 0002:00009EE4       LastExceptAddr
 0002:00006054       LastExceptionAddress
 0002:00009FA0       LastExceptionCallStackAddress
 0002:00009FA8       LastExceptionCallStackDump
 0002:00009FA4       LastExceptionCallStackSize
 0002:00009F04       LastExceptionLog
 0002:0000A0C0       LastExceptionMessage
 0002:00006058       LastExceptionObject
 0002:00009F00       LastExceptionRecord
 0002:00009F9C       LastExceptionThreadID
 0002:0000A0BC       LastExceptionType
 0002:00009EF8       LastExceptMessage
 0002:00009EF0       LastExceptObject
 0002:00009EEC       LastExceptThreadID
 0002:00009E5C       LastFinalizationPtr
 0002:00009EA0       LastHTMLPage
 0002:00009E58       LastInitializationPtr
 0002:00009EA4       LastInitPointer
 0002:00009F08       LastLog
 0002:0000A0D4       LeakAddr
 0001:00001C40       LeaksCheck
 0002:0000705A       LeaksOptions
 0002:0000604C       LeaksStackList
 0002:0000A0D0       LeakTotalCount
 0002:0000A0CC       LeakTotalSize
 0001:00055C80       LearnDelphi
 0001:00000690       LeaveCriticalSection
 0002:0000A358       LeftButton
 0002:0000A350       ListHeight
 0002:0000A34C       ListWidth
 0001:0002E8E0       Load
 0001:000009C0       LoadBitmap
 0001:000009C8       LoadCursor
 0001:000388E4       LoadData
 0001:000386E4       LoadData_Old
 0001:00038D00       LoadDebugInformation
 0001:00054294       LoadFromFile
 0001:00000698       LoadLibrary
 0001:000006A0       LoadLibraryEx
 0001:000006A8       LoadResource
 0001:00030574       LoadSharedDataEx
 0001:000367F4       LoadTextFile
 0001:00000360       LocalAlloc
 0001:00047784       LocalesCallback
 0001:00000ECC       LockCheck
 0001:0004FB74       LockCheck
 0001:000006B0       LockResource
 0001:00000ED8       LockVariable
 0001:00044F2C       LogFileMessage
 0001:00043D34       LoggedUserName
 0001:00033914       LogicToPhysicAddr
 0001:000004A8       LookupPrivilegeName
 0001:00018284       LRot32
 0001:0003D0D4       MailSlotSend
 0002:0000A3A8       MainDialog
 0002:00009EDC       MainThreadHandle
 0002:00009EE0       MainThreadTopOfStack
 0001:00000AA0       MakeLong
 0001:00018194       make_crc_table
 0002:0000A0D8       ManualAntiFreeze
 0001:0003731C       MappedExceptionObject
 0001:000006B8       MapViewOfFile
 0002:0000608C       Mask
 0001:0000A124       Max
 0002:00001C98       MaxBugOccurrences
 0001:00037FC8       MaxReadableSize
 0002:0000606C       MemoryOverrunExceptionText
 0002:0000705C       MemoryPages
 0001:000009D0       MessageBeep
 0001:000009D8       MessageBox
 0001:00002B5C       Messages
 0001:0000A12C       Min
 0001:0002B8FC       ModRM
 0001:0000E20C       ModRMByte
 0002:00000000       Module
 0001:0003BED4       ModuleBmp
 0001:0002E29C       ModuleFileName
 0001:0000E1B0       ModuleFileName
 0001:0000D884       ModuleFileName
 0001:00032210       ModuleInfoByAddr
 0001:00032154       ModuleInfoByHandle
 0002:00009F5C       ModuleInfoData
 0002:00006060       ModuleInfoHandle
 0001:00033904       ModuleInitTable
 0002:00007000       ModuleIsLib
 0001:00002438       ModuleName
 0002:00006040       ModulesList
 0001:0003BFCC       ModulesListDialogProc
 0002:0000A3B8       MonitorRect
 0001:000006C0       MoveFile
 0001:000009E0       MoveWindow
 0001:000006C8       MulDiv
 0002:00006068       MultiFreeExceptionText
 0002:00007020       MultiFreeProc
 0002:0000A134       MustFreeGlobalMappedObject
 0001:0004DBA4       MustPauseThisThread
 0001:0004D9F8       MustRestoreApplication
 0001:0004D9B8       MustSendMessage
 0001:00020C2C       NeedConvertNotDosText
 0002:000033CC       NetLib
 0001:0003A534       NewDialogProc
 0001:0003E8BC       NewDialogProc
 0001:00041BE4       NewDialogProc
 0001:00001424       NewFreeMem
 0001:000013B8       NewGetMem
 0002:00000020       NewMemoryManager
 0001:00040B34       NewMSDialogProc
 0001:00001450       NewReallocMem
 0001:00039034       NextItem
 0002:00000958       NoChars
 0002:0000A198       NonClientMetrics
 0001:0002493C       NormalizePos
 0002:0000A0E1       NoSynchronizeEvent
 0002:00009F59       NotLoadDebugInfo
 0002:00009E84       NTService_LogMessage
 0001:000009E8       OffsetRect
 0002:00009E34       OldExceptObjProc
 0002:00009E24       OldExceptProc
 0002:0000A3B4       OldForegroundWnd
 0002:0000A0EC       OldGlobal_ExceptionRecord
 0002:00007038       OldMemoryManager
 0001:00046A8C       OnCallInstr
 0002:00004864       OneByteOpcodes
 0001:0002E4E0       OneString
 0002:00009ED4       OnlySafeCallExceptions
 0001:00046B9C       OnRefProc
 0002:00000A24       OpCodeLongJump1Byte
 0002:00000A44       OpCodeLongJump2Bytes
 0002:000009C4       OpCodePrefixes
 0002:00000A04       OpCodeReturn
 0002:000009E4       OpCodeShortJump
 0001:000009F0       OpenClipboard
 0002:00006074       Opened_LogFile_Name
 0001:0003D1CC       OpenIDEEditor
 0001:00035E34       OpenLogFile
 0001:0002DF98       OpenPrinter
 0001:000006D0       OpenProcess
 0001:000004B0       OpenProcessToken
 0001:0001F894       OpenRequest
 0001:0002C3BC       Operand
 0002:0000A338       OriginalHeight
 0002:00007064       OriginalMemMgr
 0002:00009EAC       OriginalThreadProc
 0002:0000A334       OriginalWidth
 0001:00048CD4       OSSupportDisplayAPI
 0002:0000A0E4       OutOfMemoryCache
 0001:000006D8       OutputDebugString
 0002:0000701C       OverrunProc
 0002:00001BC8       p
 0001:0001A6A4       ParserHTML
 0002:000033DC       PassiveMode
 0002:00009DCC       PasswordRequest
 0001:000009F8       PeekMessage
 0001:0000BC04       PEInitialize
 0001:0000BB64       PeMapImgFindSection
 0001:0000BBC0       PeMapImgNtHeaders
 0001:0000EAC4       PeMapImgNtHeaders
 0001:0000BB50       PeMapImgSections
 0002:0000AC30       PNG_Bitmap
 0002:0000A7E8       PNG_ColoursCount
 0002:0000A814       PNG_CRCList
 0002:0000607C       PNG_CRCListed
 0002:0000AC24       PNG_Cursor
 0002:0000A7F8       PNG_Data
 0002:0000A7F0       PNG_DataSize
 0002:0000AC2C       PNG_DCCompatible
 0002:0000AC28       PNG_DCScreen
 0002:0000A810       PNG_Encode_Data
 0002:0000A80C       PNG_Encode_Filter
 0002:0000AC20       PNG_FocusWnd
 0002:0000A7FC       PNG_HeaderData
 0002:0000AC38       PNG_Height
 0002:0000AC1C       PNG_HWindow
 0002:0000A7F4       PNG_ImgData
 0002:0000AC14       PNG_pal
 0002:0000A7EC       PNG_RowBytes
 0002:0000AC18       PNG_UsePal
 0002:0000AC34       PNG_Width
 0001:00031F40       PopulateCurrentProcessWindows
 0001:00006250       PosEx
 0001:00000A00       PostMessage
 0001:0004641C       PrepareFilesToSend
 0001:0003297C       PriorityToString
 0001:00043AF4       ProcessDialogMessages
 0002:00006044       ProcessesList
 0001:0003C700       ProcessesListDialogProc
 0001:00042500       ProcessImage
 0001:000394D4       ProcessMessage
 0001:0004F434       ProcessMessages
 0002:000033D4       ProxyPassword
 0002:000033D8       ProxyServer
 0002:000033D0       ProxyUserName
 0001:00000A08       PtInRect
 0002:00000998       PublicsByNameHeader
 0002:000009A8       PublicsByValueHeader
 0001:00000FD8       PurgeCallStack
 0001:000390A4       PurgeCallStack
 0001:00001ABC       PurgeCallStacks
 0001:00019758       PurgeHTMLCode
 0001:000018A8       PurgeInvalidLeaks
 0001:0004DA50       PurgeModulesList
 0001:00019B70       PurgeQuotes
 0001:000473F0       PurgeString
 0001:000062E8       QuickStringReplace
 0002:00009EE8       RaisedExceptAddr
 0002:0000A320       rClick
 0001:00038024       ReadAddr
 0001:0000A5B8       ReadAddress
 0001:0002B7D4       ReadByte
 0001:0000A508       ReadDecValue
 0001:0002B794       ReadDWord
 0001:00048DF0       ReadDWordKey
 0001:00034A20       ReadEncodeString
 0001:0000A53C       ReadHexValue
 0001:0000651C       ReadKey
 0001:0002BA68       ReadSib
 0001:0003B4B0       ReadState
 0001:0000779C       ReadString
 0001:00005CC8       ReadString
 0001:0000A5F4       ReadString
 0001:0000A4DC       ReadTextLine
 0001:0002B7B4       ReadWord
 0001:00053888       RealAddr
 0002:0000A348       RealHeight
 0002:0000A33C       RealLeft
 0001:000331E8       RealPriority
 0001:000364D8       RealTmpLastHTMLPage
 0002:0000A340       RealTop
 0002:0000A344       RealWidth
 0001:0000DB98       recv
 0001:00042448       ReduceTree
 0001:000004B8       RegCloseKey
 0001:000004C0       RegEnumKeyEx
 0001:00000A10       RegisterClass
 0001:000004C8       RegOpenKeyEx
 0001:000004D0       RegQueryValueEx
 0001:000554B0       RegStr
 0001:00000A18       ReleaseDC
 0001:0000E5D8       RelocateMemory
 0001:000019BC       RemoveExtraLeaks
 0001:00048910       RemoveLastSeparator
 0001:00001B3C       RemoveLeaksSons
 0001:0000174C       RemoveMemBlock
 0001:0002CD58       Replacer
 0001:00039F50       ResetAutoCloseTimer
 0001:00043D70       ResetCounting
 0001:0004F3F0       ResetGlobalVars
 0002:00007028       ResetLeaks
 0002:000009B8       ResourceFilesHeader
 0001:000374B8       RestoreGlobalExceptionRecord
 0001:000006E0       ResumeThread
 0001:000309B4       RFCDate
 0001:00000AC0       RGB
 0001:00037CA0       RoundMatch
 0001:00037CB8       RoundMatchPtr
 0002:0000A310       rSupport
 0001:0002E92C       RTF_LoadFromStream
 0001:0002E958       RTF_LoadFromText
 0001:00009308       SafeExec
 0001:0000A1B0       SafeLoadFromFileToStream
 0002:0000A7E4       SavedLastHTMLPage
 0001:000362B0       SavedScreenshot
 0001:000373F0       SaveGlobalExceptionRecord
 0001:00049FDC       SaveLogFile
 0001:0003B760       SaveState
 0001:00000A20       ScreenToClient
 0001:0000A134       SearchDynArray
 0001:00021318       SearchItem
 0001:00020E0C       SearchNextItem
 0001:0001AEE0       SearchPort
 0001:0001AE50       SearchWord
 0001:0000AB64       Search_MapLineNumber
 0001:0000AD30       Search_MapProcName
 0002:00000988       SegmentsHeader
 0001:00000830       SelectObject
 0001:00000838       SelectPalette
 0001:0000DBA0       send
 0001:0004411C       SendCommandEx
 0001:000456E8       SendEmailMessage
 0001:00046770       SendInternetMessage
 0001:00000A28       SendMessage
 0001:00000A30       SendMessageTimeout
 0001:000462D0       SendWebMessage
 0001:0001F298       SendWebTrakerReport
 0002:00009E08       ServerECB
 0001:00039F0C       SetAutoCloseTimer
 0001:00039F9C       SetAutoTopMost
 0001:00000840       SetBkColor
 0001:00000848       SetBkMode
 0001:00000A38       SetClipboardData
 0001:00031F5C       SetClipboardText
 0001:00043D4C       SetCounting
 0001:00000A40       SetCursor
 0001:000396A8       SetCustomErrorMessage
 0001:000541D8       SetDebugHook
 0001:0003B468       SetDialogRect
 0001:0003B8F8       SetDialogState
 0001:00000850       SetDIBColorTable
 0001:000006E8       SetEnvironmentVariable
 0001:0004DBFC       SetEnvVariables
 0001:000458AC       SetError
 0001:00031B14       SetErrorType
 0001:00051D04       SetEurekaLogState
 0001:0002FCC8       SetEventAddr
 0001:00000A48       SetFocus
 0001:00000A50       SetForegroundWindow
 0001:00045D54       SetFullURL
 0001:0004F4D0       SetHandledWithEurekaLog
 0001:00050404       SetIndyEvent
 0001:00039D8C       SetInitDialog
 0001:000319C4       SetInternalError
 0001:0004FB30       SetIntraWebEvent
 0001:0002E114       SetItem
 0001:0005002C       SetLastECX
 0001:000006F0       SetLastError
 0001:000395A0       SetLastException
 0001:00039578       SetLastExceptionData
 0001:000369A8       SetLastExceptionObject
 0001:000395B8       SetLastExceptStack
 0001:0005001C       SetLastStackPointer
 0001:0005388C       SetMainThreadTopOfStack
 0001:00000858       SetMapMode
 0001:000011D4       SetOurPointer
 0001:0001F3B4       SetProxyAuthenticationData
 0001:0001F348       SetProxyServer
 0001:0003E714       SetRectangles
 0001:00041B48       SetRectangles
 0001:000396E8       SetRectangles
 0001:0002EA0C       SetRTFBackColor
 0001:00043C8C       SetSendDialogBar
 0001:00043B60       SetSendDialogLabel
 0001:00043C54       SetSendDialogSingleLabel
 0001:00000860       SetTextColor
 0001:00000A58       SetTimer
 0001:0000DF54       SetVirtualMethod
 0001:00045D9C       SetWebTrakerError
 0001:00000A60       SetWindowLong
 0001:00000A68       SetWindowPlacement
 0001:00000A70       SetWindowPos
 0001:0000DB70       ShellAPI
 0001:0000DB38       ShellExecute
 0001:00045064       ShellSendMail
 0001:0003A4F4       ShiftWndBottom
 0001:00055408       ShlObj
 0001:000418A8       ShowDialog
 0002:00005B3C       ShowEurekaLogUnits
 0002:0000A3A5       ShowInDetailsMode
 0002:0000702C       ShowLeaks
 0001:0003A8E4       ShowRequestDialog
 0001:00041EAC       ShowSendDialog
 0001:00041E28       ShowSendDialogThread
 0001:0004DAA8       ShowType
 0001:00000A78       ShowWindow
 0001:0002B928       Sib
 0001:0000E1F4       SIDSize
 0001:0002B6F4       SignedIntToHex
 0001:0001F330       SimpleCheckError
 0001:0000AF28       SimpleCryptString
 0001:0002E5D8       SimpleWord
 0001:000006F8       SizeofResource
 0001:0000A494       SkipEndLine
 0001:0000A474       SkipWhiteSpace
 0001:00000700       Sleep
 0001:00044F6C       SMTPSend
 0001:000449C8       SMTPSendEmail
 0001:0004419C       SMTPSendSingleEmail
 0001:0000DBA8       socket
 0001:0002FEA8       StandardIsValidClass
 0001:00046CCC       StartComment
 0002:00009F14       StartDir
 0002:00009E2C       StartingDate
 0001:000304AC       StoreSharedDataEx
 0001:0000D38C       StringReplace
 0001:00007700       StrToBin
 0001:0001005C       StrToWord
 0002:0000A330       SupportLinkActive
 0001:00000708       SuspendThread
 0001:00018CB4       SwapDWord
 0001:00037BEC       SynchronizeEvent
 0002:00009F18       SynchronizeExcept
 0002:00009F1C       SynchronizeRaise
 0001:0000A644       SyncToHeader
 0001:0000A70C       SyncToPrefix
 0001:00000490       SysInit
 0001:00000A80       SystemParametersInfo
 0002:00000978       TableHeader
 0001:0002DFB0       TActiveXException.Create
 0001:0002D090       TDisAsm.GetInstruction
 0001:00018D98       TEA_Decrypt
 0001:00018CE8       TEA_Encrypt
 0001:0000A268       TELAbstractMapParser.Create
 0001:0000A2C8       TELAbstractMapParser.Destroy
 0001:0000A2FC       TELAbstractMapParser.MapStringToStr
 0001:0000A7DC       TELAbstractMapParser.Parse
 0001:0000B108       TELBinDebugScanner.CacheLineNumbers
 0001:0000B1C0       TELBinDebugScanner.CacheProcNames
 0001:0000B2B4       TELBinDebugScanner.CheckFormat
 0001:0000B0B0       TELBinDebugScanner.Create
 0001:0000B350       TELBinDebugScanner.DataToStr
 0001:0000DA54       TELBinDebugScanner.Destroy
 0001:0000B380       TELBinDebugScanner.LineNumberFromAddr
 0001:0000B484       TELBinDebugScanner.MakePtr
 0001:0000B490       TELBinDebugScanner.ModuleNameFromAddr
 0001:0000B4FC       TELBinDebugScanner.ModuleStartFromAddr
 0001:0000B554       TELBinDebugScanner.ProcNameFromAddr
 0001:0000B708       TELBinDebugScanner.ReadValue
 0001:0000B744       TELBinDebugScanner.SourceNameFromAddr
 0001:0000C870       TELConstantSymbolInfo.Create
 0001:0000C614       TELDataSymbolInfo.Create
 0001:0000BA1C       TELDebugInfoJedy.Destroy
 0001:0000BA5C       TELDebugInfoJedy.GetLocationInfo
 0001:0000BC3C       TELDebugInfoJedy.InitializeSource
 0001:0000BD34       TELDebugInfoJedy.ValidData
 0001:0000B858       TELDebugInfoMap.Destroy
 0001:0000B88C       TELDebugInfoMap.GetLocationInfo
 0001:0000B980       TELDebugInfoMap.InitializeSource
 0001:0000BA14       TELDebugInfoMap.ValidData
 0001:0000B7D0       TELDebugInfoSource.Create
 0001:0000B808       TELDebugInfoSource.GetFileName
 0001:0000B84C       TELDebugInfoSource.VAFromAddr
 0001:0000BD48       TELDebugInfoTD32.Destroy
 0001:0000BD7C       TELDebugInfoTD32.GetLocationInfo
 0001:0000BE78       TELDebugInfoTD32.InitializeSource
 0001:0000BED4       TELDebugInfoTD32.ValidData
 0001:0000C7AC       TELLabelSymbolInfo.Create
 0001:0000C09C       TELLineInfo.Create
 0001:0000AB5C       TELMapScanner.ClassTableItem
 0001:0000AAA0       TELMapScanner.Create
 0001:0000AB04       TELMapScanner.Destroy
 0001:0000AB6C       TELMapScanner.LineNumberFromAddr
 0001:0000ABD8       TELMapScanner.LineNumbersItem
 0001:0000ACA0       TELMapScanner.LineNumberUnitItem
 0001:0000ACA4       TELMapScanner.ModuleNameFromAddr
 0001:0000ACF4       TELMapScanner.ModuleStartFromAddr
 0001:0000AD38       TELMapScanner.ProcNameFromAddr
 0001:0000ADB8       TELMapScanner.PublicsByNameItem
 0001:0000ADBC       TELMapScanner.PublicsByValueItem
 0001:0000AE18       TELMapScanner.Scan
 0001:0000AE60       TELMapScanner.SegmentItem
 0001:0000AEC8       TELMapScanner.SourceNameFromAddr
 0001:0000BF3C       TELModuleInfo.Create
 0001:0000BFFC       TELModuleInfo.GetSegment
 0001:0000C550       TELObjNameSymbolInfo.Create
 0001:0000D73C       TELPeBorTD32Image.CheckDebugData
 0001:0000D78C       TELPeBorTD32Image.ClearDebugData
 0001:0000D6BC       TELPeBorTD32Image.Create
 0001:0000D714       TELPeBorTD32Image.Destroy
 0001:0000D7B4       TELPeBorTD32Image.IsDebugInfoInImage
 0001:0000D8CC       TELPeBorTD32Image.IsDebugInfoInTds
 0001:0000C484       TELProcSymbolInfo.Create
 0001:0000C0E4       TELSourceModuleInfo.Create
 0001:0000C248       TELSourceModuleInfo.Destroy
 0001:0000C330       TELSourceModuleInfo.FindLine
 0001:0000C27C       TELSourceModuleInfo.GetLine
 0001:0000C290       TELSourceModuleInfo.GetLineCount
 0001:0000C298       TELSourceModuleInfo.GetSegment
 0001:0000C3CC       TELSymbolInfo.Create
 0001:0000CC58       TELTD32InfoParser.Analyse
 0001:0000CDCC       TELTD32InfoParser.AnalyseAlignSymbols
 0001:0000CF4C       TELTD32InfoParser.AnalyseModules
 0001:0000CD9C       TELTD32InfoParser.AnalyseNames
 0001:0000CF70       TELTD32InfoParser.AnalyseSourceModules
 0001:0000CAD4       TELTD32InfoParser.Create
 0001:0000CBFC       TELTD32InfoParser.Destroy
 0001:0000D02C       TELTD32InfoParser.FindModule
 0001:0000D184       TELTD32InfoParser.FindProc
 0001:0000D0E4       TELTD32InfoParser.FindSourceModule
 0001:0000CFB8       TELTD32InfoParser.GetModule
 0001:0000CFCC       TELTD32InfoParser.GetModuleCount
 0001:0000CFD4       TELTD32InfoParser.GetName
 0001:0000CFF4       TELTD32InfoParser.GetSourceModule
 0001:0000D008       TELTD32InfoParser.GetSourceModuleCount
 0001:0000D010       TELTD32InfoParser.GetSymbol
 0001:0000D024       TELTD32InfoParser.GetSymbolCount
 0001:0000D20C       TELTD32InfoParser.IsTD32DebugInfoValid
 0001:0000D2E8       TELTD32InfoParser.IsTD32Sign
 0001:0000D300       TELTD32InfoParser.LfaToVa
 0001:0000D308       TELTD32InfoScanner.LineNumberFromAddr
 0001:0000D354       TELTD32InfoScanner.ModuleNameFromAddr
 0001:0000D5F0       TELTD32InfoScanner.ProcNameFromAddr
 0001:0000D68C       TELTD32InfoScanner.SourceNameFromAddr
 0001:0000C93C       TELUdtSymbolInfo.Create
 0001:0000CA08       TELVftPathSymbolInfo.Create
 0001:0000C6E0       TELWithSymbolInfo.Create
 0001:0002E4B4       TempPath
 0002:00009E54       TerminateApplication
 0001:00000710       TerminateProcess
 0001:00000718       TerminateThread
 0001:0002284C       TestDecrypt
 0001:0000FC40       TEurekaClientSMTP.GetText
 0001:0000FBFC       TEurekaClientSMTP.Open
 0001:0000FD1C       TEurekaClientSMTP.SendCommand
 0001:0000F584       TEurekaClientSocket.Close
 0001:0000F4C0       TEurekaClientSocket.Create
 0001:0000F550       TEurekaClientSocket.Destroy
 0001:0000F3E4       TEurekaClientSocket.Error
 0001:0000FB70       TEurekaClientSocket.GetFullText
 0001:0000F388       TEurekaClientSocket.LookupName
 0001:0000F644       TEurekaClientSocket.Open
 0001:0000F9B0       TEurekaClientSocket.ReceiveBuf
 0001:0000FBA8       TEurekaClientSocket.ReceiveFullText
 0001:0000FA98       TEurekaClientSocket.ReceiveText
 0001:0000F830       TEurekaClientSocket.SendBuf
 0001:0000F8F8       TEurekaClientSocket.SendText
 0001:00006A54       TEurekaExceptionsFilters.Add
 0001:00006A70       TEurekaExceptionsFilters.Assign
 0001:00006B2C       TEurekaExceptionsFilters.Clear
 0001:00006B58       TEurekaExceptionsFilters.Create
 0001:00006B90       TEurekaExceptionsFilters.Delete
 0001:00006BC0       TEurekaExceptionsFilters.Destroy
 0001:00006BEC       TEurekaExceptionsFilters.GetItem
 0001:00051560       TEurekaFunctionsList.Clear
 0001:00051584       TEurekaFunctionsList.Delete
 0001:000515AC       TEurekaFunctionsList.Destroy
 0001:000515D8       TEurekaFunctionsList.GetItem
 0001:0002E3D4       TEurekaLogList.GetItem
 0001:00006CEC       TEurekaModuleOptions.Assign
 0001:00006C00       TEurekaModuleOptions.Create
 0001:00006CB8       TEurekaModuleOptions.Destroy
 0001:0000859C       TEurekaModuleOptions.DisableSharedDataWrite
 0001:000085A0       TEurekaModuleOptions.EnableSharedDataWrite
 0001:00007098       TEurekaModuleOptions.GetCustomizedExpandedTexts
 0001:00007618       TEurekaModuleOptions.LoadFromFile
 0001:00007814       TEurekaModuleOptions.LoadFromStream
 0001:00008598       TEurekaModuleOptions.LoadSharedData
 0001:0000908C       TEurekaModuleOptions.OutputFile
 0001:00009228       TEurekaModuleOptions.OutputLogFile
 0001:000070B4       TEurekaModuleOptions.SaveToFile
 0001:000085A4       TEurekaModuleOptions.SaveToSharedData
 0001:00007210       TEurekaModuleOptions.SaveToStream
 0001:00008BBC       TEurekaModuleOptions.SetActivateHandle
 0001:00008BC8       TEurekaModuleOptions.SetActivateLog
 0001:00008B60       TEurekaModuleOptions.SetActive
 0001:00008BD4       TEurekaModuleOptions.SetAppendLogs
 0001:00008EE0       TEurekaModuleOptions.SetAttachedFiles
 0001:00008F24       TEurekaModuleOptions.SetAutoCloseDialogSecs
 0001:00008F30       TEurekaModuleOptions.SetAutoCrashMinutes
 0001:00008F3C       TEurekaModuleOptions.SetAutoCrashNumber
 0001:00008F48       TEurekaModuleOptions.SetAutoCrashOperation
 0001:00008F94       TEurekaModuleOptions.SetBehaviourOptions
 0001:00008FAC       TEurekaModuleOptions.SetCallStackOptions
 0001:00008EB4       TEurekaModuleOptions.SetCommonSendOptions
 0001:00008ECC       TEurekaModuleOptions.SetCompiledFileOptions
 0001:00008B04       TEurekaModuleOptions.SetCustomizedTexts
 0001:00008BE0       TEurekaModuleOptions.SetEMailAddresses
 0001:00008C00       TEurekaModuleOptions.SetEMailMessage
 0001:00008C20       TEurekaModuleOptions.SetEMailSendMode
 0001:00008C2C       TEurekaModuleOptions.SetEMailSubject
 0001:00008B78       TEurekaModuleOptions.SetErrorsNumberToSave
 0001:00008C4C       TEurekaModuleOptions.SetErrorsNumberToShowTerminateBtn
 0001:00008F00       TEurekaModuleOptions.SetExceptionDialogOptions
 0001:00008F18       TEurekaModuleOptions.SetExceptionDialogType
 0001:00008C58       TEurekaModuleOptions.SetForegroundTab
 0001:00008B6C       TEurekaModuleOptions.SetFreezeActivate
 0001:00008C64       TEurekaModuleOptions.SetFreezeTimeout
 0001:00008F54       TEurekaModuleOptions.SetHTMLLayout
 0001:00008C70       TEurekaModuleOptions.SetLogOptions
 0001:00008BB0       TEurekaModuleOptions.SetModuleHandle
 0001:00008B94       TEurekaModuleOptions.SetModuleName
 0001:00008C84       TEurekaModuleOptions.SetOutputPath
 0001:00008CA4       TEurekaModuleOptions.SetPostFailureBuildEvent
 0001:00008CC0       TEurekaModuleOptions.SetPostSuccessfulBuildEvent
 0001:00008CDC       TEurekaModuleOptions.SetPreBuildEvent
 0001:00008CF8       TEurekaModuleOptions.SetProxyPassword
 0001:00008D14       TEurekaModuleOptions.SetProxyPort
 0001:00008D20       TEurekaModuleOptions.SetProxyURL
 0001:00008D3C       TEurekaModuleOptions.SetProxyUserID
 0001:00008D58       TEurekaModuleOptions.SetSaveLogFile
 0001:00008D64       TEurekaModuleOptions.SetShowOptions
 0001:00008D78       TEurekaModuleOptions.SetSMTPFrom
 0001:00008D94       TEurekaModuleOptions.SetSMTPHost
 0001:00008DB0       TEurekaModuleOptions.SetSMTPPassword
 0001:00008DCC       TEurekaModuleOptions.SetSMTPPort
 0001:00008DD8       TEurekaModuleOptions.SetSMTPUserID
 0001:00008F74       TEurekaModuleOptions.SetSupportURL
 0001:00008DF4       TEurekaModuleOptions.SetTerminateBtnOperation
 0001:00008E00       TEurekaModuleOptions.SetTextsCollection
 0001:000085BC       TEurekaModuleOptions.SetToDefaultOptions
 0001:00008A5C       TEurekaModuleOptions.SetTrakerAssignTo
 0001:00008A78       TEurekaModuleOptions.SetTrakerCategory
 0001:00008A94       TEurekaModuleOptions.SetTrakerPassword
 0001:00008AB0       TEurekaModuleOptions.SetTrakerProject
 0001:00008ACC       TEurekaModuleOptions.SetTrakerTrialID
 0001:00008AE8       TEurekaModuleOptions.SetTrakerUserID
 0001:00008E4C       TEurekaModuleOptions.SetWebPassword
 0001:00008E6C       TEurekaModuleOptions.SetWebPort
 0001:00008E20       TEurekaModuleOptions.SetWebSendMode
 0001:00008E2C       TEurekaModuleOptions.SetWebURL
 0001:00008E78       TEurekaModuleOptions.SetWebUserID
 0001:00008E98       TEurekaModuleOptions.SetZipPassword
 0001:00008594       TEurekaModuleOptions.StoreSharedData
 0001:00052AC8       TEurekaModuleOptionsEx.LoadSharedData
 0001:00052A30       TEurekaModuleOptionsEx.SetActive
 0001:00052A78       TEurekaModuleOptionsEx.SetFreezeActivate
 0001:00052AC0       TEurekaModuleOptionsEx.StoreSharedData
 0001:00050F8C       TEurekaModulesList.Clear
 0001:00050FB0       TEurekaModulesList.Delete
 0001:00051004       TEurekaModulesList.Destroy
 0001:00051030       TEurekaModulesList.GetItem
 0001:00051044       TEurekaProcessesList.Clear
 0001:00051068       TEurekaProcessesList.Delete
 0001:00051090       TEurekaProcessesList.Destroy
 0001:000510BC       TEurekaProcessesList.GetItem
 0001:00050F00       TEurekaStackList.Clear
 0001:00050F24       TEurekaStackList.Delete
 0001:00050F4C       TEurekaStackList.Destroy
 0001:00050F78       TEurekaStackList.GetItem
 0001:0005135C       TEurekaThreadsList.BeginRead
 0001:00051374       TEurekaThreadsList.BeginWrite
 0001:00051438       TEurekaThreadsList.CallUnhandledException
 0001:000511F4       TEurekaThreadsList.Clear
 0001:000510D0       TEurekaThreadsList.Create
 0001:00051218       TEurekaThreadsList.Delete
 0001:000511B8       TEurekaThreadsList.Destroy
 0001:00051368       TEurekaThreadsList.EndRead
 0001:00051380       TEurekaThreadsList.EndWrite
 0001:000512B8       TEurekaThreadsList.FindByThreadHandle
 0001:00051318       TEurekaThreadsList.FindByThreadID
 0001:000512E8       TEurekaThreadsList.FindByThreadObject
 0001:00051348       TEurekaThreadsList.GetItem
 0001:0005138C       TEurekaThreadsList.NewItem
 0001:000513C8       TEurekaThreadsList.PurgeList
 0001:0005125C       TEurekaThreadsList.RemoveCurrentThread
 0001:000514F0       TEurekaThreadsList.SetExceptionType
 0001:0004F224       TExceptionThread.Create
 0001:0004F380       TExceptionThread.Execute
 0001:00000868       TextOut
 0001:0002FAD0       TextToHtml
 0001:0002EA34       TextToRTF
 0002:0000A354       TextWidth
 0001:00055944       TForm1.btnDeleteObjectClick
 0001:00055898       TForm1.btnNewObjectClick
 0001:00055890       TForm1.btnShowObjectsClick
 0001:000557F4       TForm1.FormCreate
 0001:00055850       TForm1.FormDestroy
 0001:0005597C       TForm1.ShowList
 0001:00052694       TFreezeThread.Create
 0001:000526CC       TFreezeThread.Execute
 0001:000320A0       THModuleStream.Create
 0001:0000BEF0       THModuleStream.Create
 0001:000320E8       THModuleStream.Destroy
 0001:00032118       THModuleStream.SecureRead
 0001:0000DE10       THookedMethodsList.Create
 0001:0000DE7C       THookedMethodsList.Delete
 0001:0000DEA4       THookedMethodsList.Destroy
 0001:0000DE50       THookedMethodsList.GetItem
 0001:0000DE64       THookedMethodsList.Lock
 0001:0000DE70       THookedMethodsList.Unlock
 0002:00009F38       ThreadsCriticalSection
 0002:00009E28       ThreadsList
 0002:00009F20       ThreadWrapperAddr
 0001:0001D9A0       THTTPBugzillaSendReport.PostBug
 0001:00052AD0       THTTPConnection.SetSendState
 0001:0001CC5C       THTTPConnectionBase.AddBugSummary
 0001:0001C6C8       THTTPConnectionBase.AddField
 0001:0001C83C       THTTPConnectionBase.AddFieldByDefaultList
 0001:0001C8C0       THTTPConnectionBase.AddFieldByListTitle
 0001:0001C7B8       THTTPConnectionBase.AddFieldByTextArea
 0001:0001C734       THTTPConnectionBase.AddFieldValue
 0001:0001CD00       THTTPConnectionBase.AddSearchText
 0001:0001B784       THTTPConnectionBase.Close
 0001:0001B3D4       THTTPConnectionBase.Create
 0001:0001B5F8       THTTPConnectionBase.Destroy
 0001:0001CA20       THTTPConnectionBase.GetBugCountField
 0001:0001CB90       THTTPConnectionBase.IsSuccessfulSend
 0001:0001B650       THTTPConnectionBase.Open
 0001:0001BD14       THTTPConnectionBase.SendRequest
 0001:0001C698       THTTPConnectionBase.SetRequest
 0001:0001E73C       THTTPFogBugzSendReport.PostBug
 0001:0001CD8C       THTTPMantisSendReport.PostBug
 0001:00020438       THTTPResponse.Assign
 0001:0002051C       THTTPResponse.Clear
 0001:000203F8       THTTPSendReport.Create
 0001:00020434       THTTPSendReport.SetHTTPConnectionClass
 0001:000503C4       TIdThread.HandledException
 0001:00025344       TListViewItems.AddRow
 0001:00025884       TListViewItems.Clear
 0001:000256D4       TListViewItems.ClickOnItem
 0001:000250F0       TListViewItems.Create
 0001:00025840       TListViewItems.Delete
 0001:00025664       TListViewItems.DeleteItem
 0001:000252AC       TListViewItems.Destroy
 0001:00025E94       TListViewItems.DrawList
 0001:000258A8       TListViewItems.GetItem
 0001:000258BC       TListViewItems.GetItemParam
 0001:00025F44       TListViewItems.InitializeData
 0001:00025534       TListViewItems.InsertItem
 0001:00025678       TListViewItems.RedrawItems
 0001:00026054       TListViewItems.SetRedrawState
 0001:00021114       TLogFile.Append
 0001:00020D30       TLogFile.Create
 0001:00020DDC       TLogFile.Destroy
 0001:00021418       TLogFile.FindItem
 0001:00021B68       TLogFile.GetCount
 0001:000218FC       TLogFile.GetItemValue
 0001:00021F9C       TLogFile.GetItem_Assembler
 0001:00023818       TLogFile.GetItem_AssemblerXML
 0001:00021CC0       TLogFile.GetItem_CallStack
 0001:00022884       TLogFile.GetItem_CallStackXML
 0001:00022080       TLogFile.GetItem_CPU
 0001:00023AA4       TLogFile.GetItem_CPUXML
 0001:00021C1C       TLogFile.GetItem_Generals
 0001:00022460       TLogFile.GetItem_GeneralsXML
 0001:00021D58       TLogFile.GetItem_Modules
 0001:0002318C       TLogFile.GetItem_ModulesXML
 0001:00021E60       TLogFile.GetItem_Processes
 0001:000234D0       TLogFile.GetItem_ProcessesXML
 0001:00022198       TLogFile.GetItem_Reproduce
 0001:00024050       TLogFile.GetItem_ReproduceXML
 0001:00024154       TLogFile.GetItem_XML
 0001:00024478       TLogFile.GetLogVersion
 0001:00021B74       TLogFile.GetText
 0001:00024314       TLogFile.GetXML
 0001:00020F50       TLogFile.LoadFromStream
 0001:00020E60       TLogFile.ParseBuffer
 0001:000214C4       TLogFile.Save
 0001:0002104C       TLogFile.SaveToStream
 0001:0002454C       TLogFile.SaveXMLCopy
 0001:00021B88       TLogFile.SectionIndex
 0001:00021554       TLogFile.SetItemValue
 0001:00024638       TLogItem.AddHeader
 0001:000246B0       TLogItem.AddItem
 0001:00024620       TLogItem.Clear
 0001:000245E8       TLogItem.Create
 0001:00024B80       TLogItem.GetString
 0002:00007014       tlsBuffer
 0001:00000368       TlsGetValue
 0002:00007004       TlsIndex
 0002:FFBA912B       TlsLast
 0001:00000370       TlsSetValue
 0001:000454D8       TmpCompressedFileName
 0001:0003655C       TmpLastHTMLPage
 0001:00036350       TmpLogFileName
 0001:00036438       TmpOptionsFileName
 0001:00036330       TmpScreenshot
 0001:0003657C       TmpXMLLogCopy
 0001:000363D0       TmpZIPFileName
 0002:00007050       TObjectCreate
 0002:00007054       TObjectNewInstance
 0002:0000A35C       TopButton
 0001:00039F58       TopMostTimerProc
 0001:0000F110       TranslateCharsetInfo
 0001:00000A88       TranslateMessage
 0001:0000EE64       TryHookDllProcedureEx
 0001:00051610       TSafeObject.GetSafeCall
 0001:00044C70       TSendDialogThread.Create
 0001:00044CB8       TSendDialogThread.Execute
 0001:00043CE8       TSendObject.OnSent
 0001:000468F0       TSendThread.Execute
 0002:00004C64       TwoByteOpcodes
 0001:0002072C       TXMLItem.AddField
 0001:000207C0       TXMLItem.AddItem
 0001:000209CC       TXMLItem.AppendXMLText
 0001:000207D0       TXMLItem.Create
 0001:00020878       TXMLItem.Destroy
 0001:000208A8       TXMLItem.EncodedString
 0001:00020B00       TXMLItem.GetXMLText
 0001:0002069C       TXMLItems.AddItem
 0001:000206C8       TXMLItems.Destroy
 0001:00020718       TXMLItems.GetItem
 0001:0001937C       TZipWriter.AddFile
 0001:0001932C       TZipWriter.Create
 0001:000193E8       TZipWriter.Destroy
 0002:00000030       UnassignedPointer
 0002:00006028       UnAttachableThreads
 0001:0000EA40       UnhookProcedure
 0001:0000E08C       UnhookVirtualMethod
 0001:00000F04       UnlockVariable
 0001:00000720       UnmapViewOfFile
 0001:00000A90       UnregisterClass
 0001:00039F38       UnsetAutoCloseTimer
 0001:00039FBC       UnsetAutoTopMost
 0001:00046030       UploadBugTrakerFiles
 0001:00045BFC       UploadFTPFiles
 0001:00045A20       UploadHTTPFiles
 0001:00000B48       UpperCase
 0001:0001B304       URLEncode
 0001:00055440       UrlMon
 0002:00007059       UseNewMemoryManager
 0001:0000F118       UserCharSet
 0002:00009F34       UserEmail
 0001:0002F9B4       UserFullName
 0001:0002F980       UserName
 0002:00009F68       UseTopMost
 0002:000047E4       ValidDomainChars
 0002:00009E7C       VCLHandleException
 0002:00009E80       VCLShowException
 0001:00000770       VerQueryValue
 0001:0003485C       VersionWorkAround
 0001:00000728       VirtualAlloc
 0001:00000730       VirtualFree
 0001:00000738       VirtualProtect
 0001:00000740       VirtualQuery
 0001:00000A98       WaitForInputIdle
 0001:00000748       WaitForSingleObject
 0001:00044CC4       WebCallBackProc
 0001:00000B30       Windows
 0001:00005C20       WindowsDir
 0002:0000A360       WindowState
 0001:00055478       WinInet
 0002:00001C9C       WinInet_Error_Text
 0001:0000DC10       WinSock
 0001:000554F8       WinSpool
 0002:00005B2C       WordRegs1
 0002:00005B34       WordRegs2
 0001:00000750       WriteFile
 0001:00033BB0       WriteHTMLToWeb
 0001:00042058       WriteIDAT
 0001:0000E150       WriteMem
 0001:00000758       WritePrivateProfileString
 0001:0000710C       WriteString
 0001:00005DE0       WriteString
 0001:00034434       WriteTextToIntraWeb
 0001:0004D818       WriteToWeb
 0001:0000DBC0       WSAAsyncSelect
 0001:0000DBD8       WSACleanup
 0001:0000DBC8       WSAGetLastError
 0001:0000DBD0       WSAStartup
 0001:00018C90       XorBlock
 0001:00010860       zcalloc
 0001:0001086C       zcfree
 0001:0001088C       ZCheck
 0001:000108F8       ZDecompress
 0001:00000AB8       ZeroMemory
 0001:0001221C       zipClose
 0001:00012210       zipCloseFileInZip
 0001:00011918       zipOpen
 0001:00011924       zipOpenNewFileInZip3
 0001:00011F34       zipWriteInFileInZip
 0001:00010B2C       _fclose
 0001:00010A90       _fopen
 0001:00010AB0       _fread
 0001:00010A48       _free
 0001:00010B0C       _fseek
 0001:00010AF8       _ftell
 0001:00010AD4       _fwrite
 0001:00010A38       _malloc
 0001:00010A24       _memcpy
 0001:00010A0C       _memset
 0001:00010A74       _rand
 0001:00010A80       _srand
 0001:00010A58       _strlen
 0001:00010A68       _time
 0002:00000B68       _z_errmsg
 0002:000016C3       __dist_code
 0002:000018C3       __length_code


  Address         Publics by Value

 0002:FFBA912B       TlsLast
 0001:00000358       GetModuleHandle
 0001:00000360       LocalAlloc
 0001:00000368       TlsGetValue
 0001:00000370       TlsSetValue
 0001:00000378       AllocTlsBuffer
 0001:00000384       GetTlsSize
 0001:0000038C       InitThreadTLS
 0001:000003D0       @GetTls
 0001:00000410       InitializeModule
 0001:0000041C       @InitExe
 0001:00000460       Finalization
 0001:00000490       SysInit
 0001:00000498       GetTokenInformation
 0001:000004A0       GetUserName
 0001:000004A8       LookupPrivilegeName
 0001:000004B0       OpenProcessToken
 0001:000004B8       RegCloseKey
 0001:000004C0       RegEnumKeyEx
 0001:000004C8       RegOpenKeyEx
 0001:000004D0       RegQueryValueEx
 0001:000004D8       CloseHandle
 0001:000004E0       CreateFile
 0001:000004E8       CreateFileMapping
 0001:000004F0       CreateProcess
 0001:000004F8       DeleteCriticalSection
 0001:00000500       DeleteFile
 0001:00000508       DuplicateHandle
 0001:00000510       EnterCriticalSection
 0001:00000518       EnumSystemLocales
 0001:00000520       ExitThread
 0001:00000528       FileTimeToDosDateTime
 0001:00000530       FileTimeToLocalFileTime
 0001:00000538       FindClose
 0001:00000540       FindFirstFile
 0001:00000548       FindResource
 0001:00000550       FlushInstructionCache
 0001:00000558       FreeLibrary
 0001:00000560       GetACP
 0001:00000568       GetCommandLine
 0001:00000570       GetComputerName
 0001:00000578       GetCurrentProcess
 0001:00000580       GetCurrentProcessId
 0001:00000588       GetCurrentThread
 0001:00000590       GetCurrentThreadId
 0001:00000598       GetEnvironmentVariable
 0001:000005A0       GetExitCodeProcess
 0001:000005A8       GetExitCodeThread
 0001:000005B0       GetFileAttributes
 0001:000005B8       GetHandleInformation
 0001:000005C0       GetLastError
 0001:000005C8       GetLocalTime
 0001:000005D0       GetLocaleInfo
 0001:000005D8       GetLocaleInfoA
 0001:000005E0       GetLocaleInfoW
 0001:000005E8       GetModuleFileName
 0001:000005F0       GetModuleHandle
 0001:000005F8       GetPriorityClass
 0001:00000600       GetPrivateProfileString
 0001:00000608       GetProcAddress
 0001:00000610       GetProfileString
 0001:00000618       GetStartupInfo
 0001:00000620       GetSystemDefaultLangID
 0001:00000628       GetSystemTime
 0001:00000630       GetTempPath
 0001:00000638       GetThreadContext
 0001:00000640       GetThreadPriority
 0001:00000648       GetTickCount
 0001:00000650       GetWindowsDirectory
 0001:00000658       GlobalAlloc
 0001:00000660       GlobalFree
 0001:00000668       GlobalLock
 0001:00000670       GlobalMemoryStatus
 0001:00000678       GlobalUnlock
 0001:00000680       InitializeCriticalSection
 0001:00000688       IsBadReadPtr
 0001:00000690       LeaveCriticalSection
 0001:00000698       LoadLibrary
 0001:000006A0       LoadLibraryEx
 0001:000006A8       LoadResource
 0001:000006B0       LockResource
 0001:000006B8       MapViewOfFile
 0001:000006C0       MoveFile
 0001:000006C8       MulDiv
 0001:000006D0       OpenProcess
 0001:000006D8       OutputDebugString
 0001:000006E0       ResumeThread
 0001:000006E8       SetEnvironmentVariable
 0001:000006F0       SetLastError
 0001:000006F8       SizeofResource
 0001:00000700       Sleep
 0001:00000708       SuspendThread
 0001:00000710       TerminateProcess
 0001:00000718       TerminateThread
 0001:00000720       UnmapViewOfFile
 0001:00000728       VirtualAlloc
 0001:00000730       VirtualFree
 0001:00000738       VirtualProtect
 0001:00000740       VirtualQuery
 0001:00000748       WaitForSingleObject
 0001:00000750       WriteFile
 0001:00000758       WritePrivateProfileString
 0001:00000760       GetFileVersionInfo
 0001:00000768       GetFileVersionInfoSize
 0001:00000770       VerQueryValue
 0001:00000778       BitBlt
 0001:00000780       CombineRgn
 0001:00000788       CreateBitmap
 0001:00000790       CreateCompatibleBitmap
 0001:00000798       CreateCompatibleDC
 0001:000007A0       CreateDIBSection
 0001:000007A8       CreateFont
 0001:000007B0       CreateFontIndirect
 0001:000007B8       CreatePalette
 0001:000007C0       CreateRectRgn
 0001:000007C8       CreateRectRgnIndirect
 0001:000007D0       CreateSolidBrush
 0001:000007D8       DeleteDC
 0001:000007E0       DeleteObject
 0001:000007E8       GetCurrentObject
 0001:000007F0       GetDIBits
 0001:000007F8       GetDeviceCaps
 0001:00000800       GetMapMode
 0001:00000808       GetObject
 0001:00000810       GetPixel
 0001:00000818       GetStockObject
 0001:00000820       GetSystemPaletteEntries
 0001:00000828       GetTextExtentPoint32
 0001:00000830       SelectObject
 0001:00000838       SelectPalette
 0001:00000840       SetBkColor
 0001:00000848       SetBkMode
 0001:00000850       SetDIBColorTable
 0001:00000858       SetMapMode
 0001:00000860       SetTextColor
 0001:00000868       TextOut
 0001:00000870       BeginPaint
 0001:00000878       CloseClipboard
 0001:00000880       CopyRect
 0001:00000888       CreateDialogParam
 0001:00000890       DefWindowProc
 0001:00000898       DestroyWindow
 0001:000008A0       DialogBoxParam
 0001:000008A8       DispatchMessage
 0001:000008B0       DrawIconEx
 0001:000008B8       DrawText
 0001:000008C0       EmptyClipboard
 0001:000008C8       EnableWindow
 0001:000008D0       EndDialog
 0001:000008D8       EndPaint
 0001:000008E0       EnumWindows
 0001:000008E8       FillRect
 0001:000008F0       FindWindow
 0001:000008F8       FrameRect
 0001:00000900       GetClassInfo
 0001:00000908       GetClassName
 0001:00000910       GetCursor
 0001:00000918       GetCursorPos
 0001:00000920       GetDC
 0001:00000928       GetDesktopWindow
 0001:00000930       GetDlgItem
 0001:00000938       GetFocus
 0001:00000940       GetForegroundWindow
 0001:00000948       GetIconInfo
 0001:00000950       GetSysColor
 0001:00000958       GetSystemMetrics
 0001:00000960       GetWindowDC
 0001:00000968       GetWindowLong
 0001:00000970       GetWindowPlacement
 0001:00000978       GetWindowRect
 0001:00000980       GetWindowText
 0001:00000988       GetWindowThreadProcessId
 0001:00000990       InvalidateRect
 0001:00000998       InvalidateRgn
 0001:000009A0       IsIconic
 0001:000009A8       IsWindow
 0001:000009B0       IsWindowVisible
 0001:000009B8       KillTimer
 0001:000009C0       LoadBitmap
 0001:000009C8       LoadCursor
 0001:000009D0       MessageBeep
 0001:000009D8       MessageBox
 0001:000009E0       MoveWindow
 0001:000009E8       OffsetRect
 0001:000009F0       OpenClipboard
 0001:000009F8       PeekMessage
 0001:00000A00       PostMessage
 0001:00000A08       PtInRect
 0001:00000A10       RegisterClass
 0001:00000A18       ReleaseDC
 0001:00000A20       ScreenToClient
 0001:00000A28       SendMessage
 0001:00000A30       SendMessageTimeout
 0001:00000A38       SetClipboardData
 0001:00000A40       SetCursor
 0001:00000A48       SetFocus
 0001:00000A50       SetForegroundWindow
 0001:00000A58       SetTimer
 0001:00000A60       SetWindowLong
 0001:00000A68       SetWindowPlacement
 0001:00000A70       SetWindowPos
 0001:00000A78       ShowWindow
 0001:00000A80       SystemParametersInfo
 0001:00000A88       TranslateMessage
 0001:00000A90       UnregisterClass
 0001:00000A98       WaitForInputIdle
 0001:00000AA0       MakeLong
 0001:00000AAC       HiWord
 0001:00000AB0       CopyMemory
 0001:00000AB8       ZeroMemory
 0001:00000AC0       RGB
 0001:00000ADC       GetRValue
 0001:00000AE0       GetGValue
 0001:00000AE4       GetBValue
 0001:00000AE8       CreateDialog
 0001:00000B00       Finalization
 0001:00000B30       Windows
 0001:00000B48       UpperCase
 0001:00000B88       ExtractFileName
 0001:00000BCC       IsObjectCreation
 0001:00000BFC       CallerOfReallocMem
 0001:00000C10       GetReadableSize
 0001:00000C98       IsValidBlockAddr
 0001:00000D74       IsValidClass
 0001:00000DC4       IsAParentClassStr
 0001:00000E90       ConvertAddress
 0001:00000ECC       LockCheck
 0001:00000ED8       LockVariable
 0001:00000F04       UnlockVariable
 0001:00000F08       GetFramesCallStackDump
 0001:00000F80       GetRawCallStackDump
 0001:00000FD8       PurgeCallStack
 0001:000011D4       SetOurPointer
 0001:00001290       CheckOurPointer
 0001:00001370       HandleError
 0001:00001398       GetDataCaller
 0001:000013AC       GetObjectCaller
 0001:000013B8       NewGetMem
 0001:00001424       NewFreeMem
 0001:00001450       NewReallocMem
 0001:000014C0       FindNextValidLeak
 0001:000014D0       IsALeakChild
 0001:00001540       AreTheSameLeak
 0001:00001564       FindLeakSons
 0001:000015C0       GetLeakCount
 0001:0000160C       FindLeakAddress
 0001:0000174C       RemoveMemBlock
 0001:0000181C       FindLeakClassName
 0001:000018A8       PurgeInvalidLeaks
 0001:000019BC       RemoveExtraLeaks
 0001:000019E4       Internal_ResetLeaks
 0001:000019F8       Internal_AddLeak
 0001:00001AA8       Internal_ShowLeaks
 0001:00001ABC       PurgeCallStacks
 0001:00001B3C       RemoveLeaksSons
 0001:00001B64       FreeAllLeaks
 0001:00001B90       CountAllLeaks
 0001:00001BB8       HandleAnyLeak
 0001:00001C40       LeaksCheck
 0001:000020AC       IsIntoIDE
 0001:00002190       GetResourceData
 0001:000021D8       GetRawOptions
 0001:00002274       GetOptionsFromExeFile
 0001:000022B8       Error
 0001:000022FC       InitShareMem
 0001:000023F0       DoneShareMem
 0001:00002438       ModuleName
 0001:000024C0       IsCompiledWithPackages
 0001:000024D8       EnableMemoryLeaksCheck
 0001:00002664       DisableMemoryLeaksCheck
 0001:00002684       Init
 0001:00002850       Done
 0001:000028D8       Finalization
 0001:00002910       ELeaks
 0001:00002B2C       Finalization
 0001:00002B5C       Messages
 0001:00002D7C       Finalization
 0001:00002DAC       ETypes
 0001:0000566C       Finalization
 0001:000056F0       EConsts
 0001:000059AC       GetEnvVariable
 0001:00005A18       ExpandEnvVars
 0001:00005B14       GetProfileFolder
 0001:00005BD0       GetUserPath
 0001:00005C20       WindowsDir
 0001:00005C50       IniDir
 0001:00005CC8       ReadString
 0001:00005DE0       WriteString
 0001:00005EA8       GetReadableSize
 0001:00005F30       IsValidBlockAddr
 0001:00005F48       ConvertAddress
 0001:00005F80       GetModifiedDate
 0001:00006024       GetLongNameFromShort
 0001:00006250       PosEx
 0001:000062E8       QuickStringReplace
 0001:000063FC       ExtractStringsEx
 0001:0000651C       ReadKey
 0001:00006630       CheckKey
 0001:000066C4       GetGMT
 0001:00006704       IntoIDE
 0001:0000670C       CheckIntoIDE
 0001:000067F0       IsWritableFile
 0001:00006888       IsReadableFile
 0001:000068C0       CheckDirectoryExists
 0001:000068E4       IsFileOK
 0001:00006900       GetWorkingFile
 0001:00006A54       TEurekaExceptionsFilters.Add
 0001:00006A70       TEurekaExceptionsFilters.Assign
 0001:00006B2C       TEurekaExceptionsFilters.Clear
 0001:00006B58       TEurekaExceptionsFilters.Create
 0001:00006B90       TEurekaExceptionsFilters.Delete
 0001:00006BC0       TEurekaExceptionsFilters.Destroy
 0001:00006BEC       TEurekaExceptionsFilters.GetItem
 0001:00006C00       TEurekaModuleOptions.Create
 0001:00006CB8       TEurekaModuleOptions.Destroy
 0001:00006CEC       TEurekaModuleOptions.Assign
 0001:00007098       TEurekaModuleOptions.GetCustomizedExpandedTexts
 0001:000070B4       TEurekaModuleOptions.SaveToFile
 0001:0000710C       WriteString
 0001:00007210       TEurekaModuleOptions.SaveToStream
 0001:00007618       TEurekaModuleOptions.LoadFromFile
 0001:0000766C       BinToStr
 0001:00007700       StrToBin
 0001:0000779C       ReadString
 0001:00007814       TEurekaModuleOptions.LoadFromStream
 0001:00008594       TEurekaModuleOptions.StoreSharedData
 0001:00008598       TEurekaModuleOptions.LoadSharedData
 0001:0000859C       TEurekaModuleOptions.DisableSharedDataWrite
 0001:000085A0       TEurekaModuleOptions.EnableSharedDataWrite
 0001:000085A4       TEurekaModuleOptions.SaveToSharedData
 0001:000085BC       TEurekaModuleOptions.SetToDefaultOptions
 0001:00008A5C       TEurekaModuleOptions.SetTrakerAssignTo
 0001:00008A78       TEurekaModuleOptions.SetTrakerCategory
 0001:00008A94       TEurekaModuleOptions.SetTrakerPassword
 0001:00008AB0       TEurekaModuleOptions.SetTrakerProject
 0001:00008ACC       TEurekaModuleOptions.SetTrakerTrialID
 0001:00008AE8       TEurekaModuleOptions.SetTrakerUserID
 0001:00008B04       TEurekaModuleOptions.SetCustomizedTexts
 0001:00008B60       TEurekaModuleOptions.SetActive
 0001:00008B6C       TEurekaModuleOptions.SetFreezeActivate
 0001:00008B78       TEurekaModuleOptions.SetErrorsNumberToSave
 0001:00008B94       TEurekaModuleOptions.SetModuleName
 0001:00008BB0       TEurekaModuleOptions.SetModuleHandle
 0001:00008BBC       TEurekaModuleOptions.SetActivateHandle
 0001:00008BC8       TEurekaModuleOptions.SetActivateLog
 0001:00008BD4       TEurekaModuleOptions.SetAppendLogs
 0001:00008BE0       TEurekaModuleOptions.SetEMailAddresses
 0001:00008C00       TEurekaModuleOptions.SetEMailMessage
 0001:00008C20       TEurekaModuleOptions.SetEMailSendMode
 0001:00008C2C       TEurekaModuleOptions.SetEMailSubject
 0001:00008C4C       TEurekaModuleOptions.SetErrorsNumberToShowTerminateBtn
 0001:00008C58       TEurekaModuleOptions.SetForegroundTab
 0001:00008C64       TEurekaModuleOptions.SetFreezeTimeout
 0001:00008C70       TEurekaModuleOptions.SetLogOptions
 0001:00008C84       TEurekaModuleOptions.SetOutputPath
 0001:00008CA4       TEurekaModuleOptions.SetPostFailureBuildEvent
 0001:00008CC0       TEurekaModuleOptions.SetPostSuccessfulBuildEvent
 0001:00008CDC       TEurekaModuleOptions.SetPreBuildEvent
 0001:00008CF8       TEurekaModuleOptions.SetProxyPassword
 0001:00008D14       TEurekaModuleOptions.SetProxyPort
 0001:00008D20       TEurekaModuleOptions.SetProxyURL
 0001:00008D3C       TEurekaModuleOptions.SetProxyUserID
 0001:00008D58       TEurekaModuleOptions.SetSaveLogFile
 0001:00008D64       TEurekaModuleOptions.SetShowOptions
 0001:00008D78       TEurekaModuleOptions.SetSMTPFrom
 0001:00008D94       TEurekaModuleOptions.SetSMTPHost
 0001:00008DB0       TEurekaModuleOptions.SetSMTPPassword
 0001:00008DCC       TEurekaModuleOptions.SetSMTPPort
 0001:00008DD8       TEurekaModuleOptions.SetSMTPUserID
 0001:00008DF4       TEurekaModuleOptions.SetTerminateBtnOperation
 0001:00008E00       TEurekaModuleOptions.SetTextsCollection
 0001:00008E20       TEurekaModuleOptions.SetWebSendMode
 0001:00008E2C       TEurekaModuleOptions.SetWebURL
 0001:00008E4C       TEurekaModuleOptions.SetWebPassword
 0001:00008E6C       TEurekaModuleOptions.SetWebPort
 0001:00008E78       TEurekaModuleOptions.SetWebUserID
 0001:00008E98       TEurekaModuleOptions.SetZipPassword
 0001:00008EB4       TEurekaModuleOptions.SetCommonSendOptions
 0001:00008ECC       TEurekaModuleOptions.SetCompiledFileOptions
 0001:00008EE0       TEurekaModuleOptions.SetAttachedFiles
 0001:00008F00       TEurekaModuleOptions.SetExceptionDialogOptions
 0001:00008F18       TEurekaModuleOptions.SetExceptionDialogType
 0001:00008F24       TEurekaModuleOptions.SetAutoCloseDialogSecs
 0001:00008F30       TEurekaModuleOptions.SetAutoCrashMinutes
 0001:00008F3C       TEurekaModuleOptions.SetAutoCrashNumber
 0001:00008F48       TEurekaModuleOptions.SetAutoCrashOperation
 0001:00008F54       TEurekaModuleOptions.SetHTMLLayout
 0001:00008F74       TEurekaModuleOptions.SetSupportURL
 0001:00008F94       TEurekaModuleOptions.SetBehaviourOptions
 0001:00008FAC       TEurekaModuleOptions.SetCallStackOptions
 0001:00008FC0       IncludeLastBackslash
 0001:00009070       IsWinVista
 0001:0000908C       TEurekaModuleOptions.OutputFile
 0001:000091AC       ComputerName
 0001:00009228       TEurekaModuleOptions.OutputLogFile
 0001:00009308       SafeExec
 0001:000094DC       Init
 0001:000094E8       Done
 0001:000094EC       Finalization
 0001:00009540       ECore
 0001:0000A124       Max
 0001:0000A12C       Min
 0001:0000A134       SearchDynArray
 0001:0000A1B0       SafeLoadFromFileToStream
 0001:0000A268       TELAbstractMapParser.Create
 0001:0000A2C8       TELAbstractMapParser.Destroy
 0001:0000A2FC       TELAbstractMapParser.MapStringToStr
 0001:0000A474       SkipWhiteSpace
 0001:0000A494       SkipEndLine
 0001:0000A4B4       Eof
 0001:0000A4C8       IsDecDigit
 0001:0000A4DC       ReadTextLine
 0001:0000A508       ReadDecValue
 0001:0000A53C       ReadHexValue
 0001:0000A5B8       ReadAddress
 0001:0000A5F4       ReadString
 0001:0000A624       FindParam
 0001:0000A644       SyncToHeader
 0001:0000A70C       SyncToPrefix
 0001:0000A7DC       TELAbstractMapParser.Parse
 0001:0000AAA0       TELMapScanner.Create
 0001:0000AB04       TELMapScanner.Destroy
 0001:0000AB5C       TELMapScanner.ClassTableItem
 0001:0000AB64       Search_MapLineNumber
 0001:0000AB6C       TELMapScanner.LineNumberFromAddr
 0001:0000ABD8       TELMapScanner.LineNumbersItem
 0001:0000ACA0       TELMapScanner.LineNumberUnitItem
 0001:0000ACA4       TELMapScanner.ModuleNameFromAddr
 0001:0000ACF4       TELMapScanner.ModuleStartFromAddr
 0001:0000AD30       Search_MapProcName
 0001:0000AD38       TELMapScanner.ProcNameFromAddr
 0001:0000ADB8       TELMapScanner.PublicsByNameItem
 0001:0000ADBC       TELMapScanner.PublicsByValueItem
 0001:0000AE18       TELMapScanner.Scan
 0001:0000AE60       TELMapScanner.SegmentItem
 0001:0000AEC8       TELMapScanner.SourceNameFromAddr
 0001:0000AF28       SimpleCryptString
 0001:0000AF68       DecodeNameString
 0001:0000B0B0       TELBinDebugScanner.Create
 0001:0000B108       TELBinDebugScanner.CacheLineNumbers
 0001:0000B1C0       TELBinDebugScanner.CacheProcNames
 0001:0000B2B4       TELBinDebugScanner.CheckFormat
 0001:0000B350       TELBinDebugScanner.DataToStr
 0001:0000B380       TELBinDebugScanner.LineNumberFromAddr
 0001:0000B484       TELBinDebugScanner.MakePtr
 0001:0000B490       TELBinDebugScanner.ModuleNameFromAddr
 0001:0000B4FC       TELBinDebugScanner.ModuleStartFromAddr
 0001:0000B554       TELBinDebugScanner.ProcNameFromAddr
 0001:0000B708       TELBinDebugScanner.ReadValue
 0001:0000B744       TELBinDebugScanner.SourceNameFromAddr
 0001:0000B7D0       TELDebugInfoSource.Create
 0001:0000B808       TELDebugInfoSource.GetFileName
 0001:0000B84C       TELDebugInfoSource.VAFromAddr
 0001:0000B858       TELDebugInfoMap.Destroy
 0001:0000B88C       TELDebugInfoMap.GetLocationInfo
 0001:0000B980       TELDebugInfoMap.InitializeSource
 0001:0000BA14       TELDebugInfoMap.ValidData
 0001:0000BA1C       TELDebugInfoJedy.Destroy
 0001:0000BA5C       TELDebugInfoJedy.GetLocationInfo
 0001:0000BB50       PeMapImgSections
 0001:0000BB64       PeMapImgFindSection
 0001:0000BBC0       PeMapImgNtHeaders
 0001:0000BC04       PEInitialize
 0001:0000BC3C       TELDebugInfoJedy.InitializeSource
 0001:0000BD34       TELDebugInfoJedy.ValidData
 0001:0000BD48       TELDebugInfoTD32.Destroy
 0001:0000BD7C       TELDebugInfoTD32.GetLocationInfo
 0001:0000BE78       TELDebugInfoTD32.InitializeSource
 0001:0000BED4       TELDebugInfoTD32.ValidData
 0001:0000BEF0       THModuleStream.Create
 0001:0000BF3C       TELModuleInfo.Create
 0001:0000BFFC       TELModuleInfo.GetSegment
 0001:0000C09C       TELLineInfo.Create
 0001:0000C0E4       TELSourceModuleInfo.Create
 0001:0000C248       TELSourceModuleInfo.Destroy
 0001:0000C27C       TELSourceModuleInfo.GetLine
 0001:0000C290       TELSourceModuleInfo.GetLineCount
 0001:0000C298       TELSourceModuleInfo.GetSegment
 0001:0000C330       TELSourceModuleInfo.FindLine
 0001:0000C3CC       TELSymbolInfo.Create
 0001:0000C484       TELProcSymbolInfo.Create
 0001:0000C550       TELObjNameSymbolInfo.Create
 0001:0000C614       TELDataSymbolInfo.Create
 0001:0000C6E0       TELWithSymbolInfo.Create
 0001:0000C7AC       TELLabelSymbolInfo.Create
 0001:0000C870       TELConstantSymbolInfo.Create
 0001:0000C93C       TELUdtSymbolInfo.Create
 0001:0000CA08       TELVftPathSymbolInfo.Create
 0001:0000CAD4       TELTD32InfoParser.Create
 0001:0000CBFC       TELTD32InfoParser.Destroy
 0001:0000CC58       TELTD32InfoParser.Analyse
 0001:0000CD9C       TELTD32InfoParser.AnalyseNames
 0001:0000CDCC       TELTD32InfoParser.AnalyseAlignSymbols
 0001:0000CF4C       TELTD32InfoParser.AnalyseModules
 0001:0000CF70       TELTD32InfoParser.AnalyseSourceModules
 0001:0000CFB8       TELTD32InfoParser.GetModule
 0001:0000CFCC       TELTD32InfoParser.GetModuleCount
 0001:0000CFD4       TELTD32InfoParser.GetName
 0001:0000CFF4       TELTD32InfoParser.GetSourceModule
 0001:0000D008       TELTD32InfoParser.GetSourceModuleCount
 0001:0000D010       TELTD32InfoParser.GetSymbol
 0001:0000D024       TELTD32InfoParser.GetSymbolCount
 0001:0000D02C       TELTD32InfoParser.FindModule
 0001:0000D0E4       TELTD32InfoParser.FindSourceModule
 0001:0000D184       TELTD32InfoParser.FindProc
 0001:0000D20C       TELTD32InfoParser.IsTD32DebugInfoValid
 0001:0000D2E8       TELTD32InfoParser.IsTD32Sign
 0001:0000D300       TELTD32InfoParser.LfaToVa
 0001:0000D308       TELTD32InfoScanner.LineNumberFromAddr
 0001:0000D354       TELTD32InfoScanner.ModuleNameFromAddr
 0001:0000D38C       StringReplace
 0001:0000D490       FormatProcName
 0001:0000D5F0       TELTD32InfoScanner.ProcNameFromAddr
 0001:0000D68C       TELTD32InfoScanner.SourceNameFromAddr
 0001:0000D6BC       TELPeBorTD32Image.Create
 0001:0000D714       TELPeBorTD32Image.Destroy
 0001:0000D73C       TELPeBorTD32Image.CheckDebugData
 0001:0000D78C       TELPeBorTD32Image.ClearDebugData
 0001:0000D7B0       GetImageNtHeaders
 0001:0000D7B4       TELPeBorTD32Image.IsDebugInfoInImage
 0001:0000D884       ModuleFileName
 0001:0000D8CC       TELPeBorTD32Image.IsDebugInfoInTds
 0001:0000D9D0       AssignValidDebugInfo
 0001:0000DA54       TELBinDebugScanner.Destroy
 0001:0000DA94       Finalization
 0001:0000DB30       EDebug
 0001:0000DB38       ShellExecute
 0001:0000DB40       Finalization
 0001:0000DB70       ShellAPI
 0001:0000DB78       closesocket
 0001:0000DB80       connect
 0001:0000DB88       htons
 0001:0000DB90       ioctlsocket
 0001:0000DB98       recv
 0001:0000DBA0       send
 0001:0000DBA8       socket
 0001:0000DBB0       gethostbyname
 0001:0000DBB8       gethostname
 0001:0000DBC0       WSAAsyncSelect
 0001:0000DBC8       WSAGetLastError
 0001:0000DBD0       WSAStartup
 0001:0000DBD8       WSACleanup
 0001:0000DBE0       Finalization
 0001:0000DC10       WinSock
 0001:0000DE10       THookedMethodsList.Create
 0001:0000DE50       THookedMethodsList.GetItem
 0001:0000DE64       THookedMethodsList.Lock
 0001:0000DE70       THookedMethodsList.Unlock
 0001:0000DE7C       THookedMethodsList.Delete
 0001:0000DEA4       THookedMethodsList.Destroy
 0001:0000DF4C       GetVirtualMethod
 0001:0000DF54       SetVirtualMethod
 0001:0000DF98       HookVirtualMethod
 0001:0000E08C       UnhookVirtualMethod
 0001:0000E150       WriteMem
 0001:0000E190       JumpToMem
 0001:0000E1B0       ModuleFileName
 0001:0000E1E0       AddrSize
 0001:0000E1F4       SIDSize
 0001:0000E20C       ModRMByte
 0001:0000E348       GetAsmSize
 0001:0000E480       GetFunctionSize
 0001:0000E53C       CalculateRelocatedAsmSize
 0001:0000E5D8       RelocateMemory
 0001:0000E75C       HookProcedure
 0001:0000E870       HookProcedureEx
 0001:0000EA40       UnhookProcedure
 0001:0000EAB0       IsWin9xDebugThunk
 0001:0000EAC4       PeMapImgNtHeaders
 0001:0000EB10       CheckFail
 0001:0000EB74       HookDllProcedure
 0001:0000EE64       TryHookDllProcedureEx
 0001:0000EFB0       Init
 0001:0000EFE4       Done
 0001:0000F08C       Finalization
 0001:0000F0E0       EHook
 0001:0000F110       TranslateCharsetInfo
 0001:0000F118       UserCharSet
 0001:0000F1C0       Finalization
 0001:0000F1F0       ELang
 0001:0000F344       InternalStartup
 0001:0000F374       InternalCleanup
 0001:0000F388       TEurekaClientSocket.LookupName
 0001:0000F3E4       TEurekaClientSocket.Error
 0001:0000F4C0       TEurekaClientSocket.Create
 0001:0000F550       TEurekaClientSocket.Destroy
 0001:0000F584       TEurekaClientSocket.Close
 0001:0000F644       TEurekaClientSocket.Open
 0001:0000F830       TEurekaClientSocket.SendBuf
 0001:0000F8F8       TEurekaClientSocket.SendText
 0001:0000F9B0       TEurekaClientSocket.ReceiveBuf
 0001:0000FA98       TEurekaClientSocket.ReceiveText
 0001:0000FB70       TEurekaClientSocket.GetFullText
 0001:0000FBA8       TEurekaClientSocket.ReceiveFullText
 0001:0000FBFC       TEurekaClientSMTP.Open
 0001:0000FC40       TEurekaClientSMTP.GetText
 0001:0000FD1C       TEurekaClientSMTP.SendCommand
 0001:0000FE30       IsValidDNS
 0001:0000FE98       AddDNS
 0001:0000FEBC       GetDNSList
 0001:0001005C       StrToWord
 0001:00010078       GetDomain
 0001:000101E4       GetDomainName
 0001:000102BC       CreateMXQuery
 0001:00010344       GetMXRecord
 0001:000103E4       GetMXBestRecord
 0001:000104D4       GetMXServerFromEmail
 0001:000106E8       Init
 0001:000106F0       Done
 0001:000106F8       Finalization
 0001:00010750       ESockets
 0001:00010860       zcalloc
 0001:0001086C       zcfree
 0001:00010874       InflateInit
 0001:0001088C       ZCheck
 0001:000108F8       ZDecompress
 0001:00010A0C       _memset
 0001:00010A24       _memcpy
 0001:00010A38       _malloc
 0001:00010A48       _free
 0001:00010A58       _strlen
 0001:00010A68       _time
 0001:00010A74       _rand
 0001:00010A80       _srand
 0001:00010A90       _fopen
 0001:00010AB0       _fread
 0001:00010AD4       _fwrite
 0001:00010AF8       _ftell
 0001:00010B0C       _fseek
 0001:00010B2C       _fclose
 0001:00010B48       GetModifiedDate
 0001:00010C4C       CreateZipFile
 0001:00010CA4       GetFileSize
 0001:00010CE0       AddZipFile
 0001:00010EA0       CloseZipFile
 0001:00010EC8       ..
 0001:00011918       zipOpen
 0001:00011924       zipOpenNewFileInZip3
 0001:00011F34       zipWriteInFileInZip
 0001:00012210       zipCloseFileInZip
 0001:0001221C       zipClose
 0001:000123DC       ..
 0001:000124A8       @fill_fopen_filefunc
 0001:000124E0       adler32
 0001:000127E8       ..
 0001:0001289C       compressBound
 0001:000128B0       ..
 0001:000129E0       @get_crc_table
 0001:000129F4       crc32
 0001:00013240       deflateInit_
 0001:0001325C       @deflateInit2_
 0001:0001382C       deflate
 0001:00013AF0       deflateEnd
 0001:00014398       @inflate_fast
 0001:00014894       inflateReset
 0001:00014950       @inflateInit2_
 0001:00014A1C       inflateInit_
 0001:00014C54       inflate
 0001:00015B0C       inflateEnd
 0001:00015EA8       @inflate_table
 0001:00016318       ..
 0001:0001631C       @_tr_init
 0001:0001745C       @_tr_stored_block
 0001:00017518       @_tr_align
 0001:000177E4       @_tr_flush_block
 0001:0001815C       Finalization
 0001:0001818C       EZlib
 0001:00018194       make_crc_table
 0001:000181F0       GetCRC32
 0001:00018238       GetCRC16
 0001:00018284       LRot32
 0001:0001829C       Compress
 0001:00018B58       GetMD5
 0001:00018C58       Finalization
 0001:00018C88       EHash
 0001:00018C90       XorBlock
 0001:00018CB4       SwapDWord
 0001:00018CE8       TEA_Encrypt
 0001:00018D98       TEA_Decrypt
 0001:00018E48       InitKey
 0001:00018EE8       Decrypt
 0001:00018FAC       Finalization
 0001:00018FDC       EEncrypt
 0001:00018FE4       CalcEncodedSize
 0001:00019010       CalcDecodedSize
 0001:00019048       Base64Encode
 0001:00019104       Base64Decode
 0001:00019198       Base64EncodeStr
 0001:000191E4       Base64DecodeStr
 0001:00019244       Base64EncodeString
 0001:0001924C       Base64DecodeString
 0001:00019254       Base64EncodeToString
 0001:00019288       Finalization
 0001:000192B8       EBase64
 0001:0001932C       TZipWriter.Create
 0001:0001937C       TZipWriter.AddFile
 0001:000193E8       TZipWriter.Destroy
 0001:00019418       Finalization
 0001:00019448       EZip
 0001:00019758       PurgeHTMLCode
 0001:0001978C       ConvertSpecialHTMLChars
 0001:000198E8       IsEnd
 0001:0001997C       GetTagValue
 0001:00019B70       PurgeQuotes
 0001:00019BC8       GetFieldValue
 0001:00019DA8       GetTextAreaValue
 0001:00019FB4       GetOptionsValue
 0001:0001A1B4       GetListValue
 0001:0001A328       FindSelected
 0001:0001A414       GetOptionsDefault
 0001:0001A538       GetListDefault
 0001:0001A6A4       ParserHTML
 0001:0001A7B4       DoneLib
 0001:0001A7CC       InitLib
 0001:0001AB40       IsRealFile
 0001:0001AB5C       GetFileContents
 0001:0001ABC8       FindErrorMessage
 0001:0001ACD8       CheckError
 0001:0001AD6C       AddAuthenticationToURL
 0001:0001AE50       SearchWord
 0001:0001AEE0       SearchPort
 0001:0001AF98       ElaborateURL
 0001:0001B100       ElaborateWebPage
 0001:0001B1B8       GetHTTPResponse
 0001:0001B304       URLEncode
 0001:0001B3D4       THTTPConnectionBase.Create
 0001:0001B5F8       THTTPConnectionBase.Destroy
 0001:0001B650       THTTPConnectionBase.Open
 0001:0001B784       THTTPConnectionBase.Close
 0001:0001B840       GenerateMultipartBoundary
 0001:0001B904       GetValueFromIndex
 0001:0001B994       GenerateRequestBody
 0001:0001BD14       THTTPConnectionBase.SendRequest
 0001:0001C698       THTTPConnectionBase.SetRequest
 0001:0001C6C8       THTTPConnectionBase.AddField
 0001:0001C734       THTTPConnectionBase.AddFieldValue
 0001:0001C7B8       THTTPConnectionBase.AddFieldByTextArea
 0001:0001C83C       THTTPConnectionBase.AddFieldByDefaultList
 0001:0001C8C0       THTTPConnectionBase.AddFieldByListTitle
 0001:0001C988       CompleteNumber
 0001:0001CA20       THTTPConnectionBase.GetBugCountField
 0001:0001CB90       THTTPConnectionBase.IsSuccessfulSend
 0001:0001CC5C       THTTPConnectionBase.AddBugSummary
 0001:0001CD00       THTTPConnectionBase.AddSearchText
 0001:0001CD8C       THTTPMantisSendReport.PostBug
 0001:0001D9A0       THTTPBugzillaSendReport.PostBug
 0001:0001E73C       THTTPFogBugzSendReport.PostBug
 0001:0001F298       SendWebTrakerReport
 0001:0001F330       SimpleCheckError
 0001:0001F348       SetProxyServer
 0001:0001F3B4       SetProxyAuthenticationData
 0001:0001F3D8       GenerateMultipartBoundary
 0001:0001F49C       GetFileContents
 0001:0001F508       GenerateRequestBody
 0001:0001F7DC       GetHTTPResponse
 0001:0001F894       OpenRequest
 0001:0001FA90       HTTPUploadFiles
 0001:0001FF48       GetFileSize
 0001:0001FF84       FTPUploadFiles
 0001:000203F8       THTTPSendReport.Create
 0001:00020434       THTTPSendReport.SetHTTPConnectionClass
 0001:00020438       THTTPResponse.Assign
 0001:0002051C       THTTPResponse.Clear
 0001:00020554       Finalization
 0001:000205A4       EWebTools
 0001:0002069C       TXMLItems.AddItem
 0001:000206C8       TXMLItems.Destroy
 0001:00020718       TXMLItems.GetItem
 0001:0002072C       TXMLItem.AddField
 0001:000207C0       TXMLItem.AddItem
 0001:000207D0       TXMLItem.Create
 0001:00020878       TXMLItem.Destroy
 0001:000208A8       TXMLItem.EncodedString
 0001:000209CC       TXMLItem.AppendXMLText
 0001:00020B00       TXMLItem.GetXMLText
 0001:00020B1C       Finalization
 0001:00020B4C       EXMLBuilder
 0001:00020C2C       NeedConvertNotDosText
 0001:00020C6C       ConvertNotDosText
 0001:00020D30       TLogFile.Create
 0001:00020DDC       TLogFile.Destroy
 0001:00020E0C       SearchNextItem
 0001:00020E60       TLogFile.ParseBuffer
 0001:00020F50       TLogFile.LoadFromStream
 0001:0002104C       TLogFile.SaveToStream
 0001:00021114       TLogFile.Append
 0001:000211A4       ElaborateString
 0001:00021318       SearchItem
 0001:00021418       TLogFile.FindItem
 0001:000214C4       TLogFile.Save
 0001:00021514       CompleteStr
 0001:00021554       TLogFile.SetItemValue
 0001:000218FC       TLogFile.GetItemValue
 0001:00021B68       TLogFile.GetCount
 0001:00021B74       TLogFile.GetText
 0001:00021B88       TLogFile.SectionIndex
 0001:00021C1C       TLogFile.GetItem_Generals
 0001:00021CC0       TLogFile.GetItem_CallStack
 0001:00021D58       TLogFile.GetItem_Modules
 0001:00021E60       TLogFile.GetItem_Processes
 0001:00021F9C       TLogFile.GetItem_Assembler
 0001:00022080       TLogFile.GetItem_CPU
 0001:00022198       TLogFile.GetItem_Reproduce
 0001:000222FC       AddValueField
 0001:00022460       TLogFile.GetItem_GeneralsXML
 0001:00022814       ExtractValue
 0001:0002284C       TestDecrypt
 0001:00022884       TLogFile.GetItem_CallStackXML
 0001:0002318C       TLogFile.GetItem_ModulesXML
 0001:000234D0       TLogFile.GetItem_ProcessesXML
 0001:00023818       TLogFile.GetItem_AssemblerXML
 0001:00023AA4       TLogFile.GetItem_CPUXML
 0001:00024050       TLogFile.GetItem_ReproduceXML
 0001:00024154       TLogFile.GetItem_XML
 0001:00024314       TLogFile.GetXML
 0001:00024478       TLogFile.GetLogVersion
 0001:0002454C       TLogFile.SaveXMLCopy
 0001:000245E8       TLogItem.Create
 0001:00024620       TLogItem.Clear
 0001:00024638       TLogItem.AddHeader
 0001:000246B0       TLogItem.AddItem
 0001:0002493C       NormalizePos
 0001:000249BC       FindSection
 0001:00024B80       TLogItem.GetString
 0001:00024D48       Finalization
 0001:00024D78       ELogManager
 0001:00024E28       GetItemRect
 0001:00024E50       DrawBmp
 0001:000250D8       ImageList_Create
 0001:000250E0       ImageList_Add
 0001:000250E8       ImageList_Destroy
 0001:000250F0       TListViewItems.Create
 0001:000252AC       TListViewItems.Destroy
 0001:00025344       TListViewItems.AddRow
 0001:00025534       TListViewItems.InsertItem
 0001:00025664       TListViewItems.DeleteItem
 0001:00025678       TListViewItems.RedrawItems
 0001:0002568C       ClickOnSign
 0001:000256D4       TListViewItems.ClickOnItem
 0001:00025840       TListViewItems.Delete
 0001:00025884       TListViewItems.Clear
 0001:000258A8       TListViewItems.GetItem
 0001:000258BC       TListViewItems.GetItemParam
 0001:000258EC       HandleBackgroundState
 0001:00025960       DrawFrame
 0001:000259D4       DrawBottom
 0001:00025A28       DrawLine
 0001:00025A7C       DrawItem
 0001:00025E94       TListViewItems.DrawList
 0001:00025EBC       GetColumnCount
 0001:00025EE8       GetColumnAlign
 0001:00025F44       TListViewItems.InitializeData
 0001:00026054       TListViewItems.SetRedrawState
 0001:00026068       Finalization
 0001:00026098       EListView
 0001:0002B6F4       SignedIntToHex
 0001:0002B794       ReadDWord
 0001:0002B7B4       ReadWord
 0001:0002B7D4       ReadByte
 0001:0002B7F4       GetRefAddress
 0001:0002B8FC       ModRM
 0001:0002B928       Sib
 0001:0002B954       GetRegName
 0001:0002BA68       ReadSib
 0001:0002BE4C       GetEffectiveAddress
 0001:0002C3BC       Operand
 0001:0002CD58       Replacer
 0001:0002D090       TDisAsm.GetInstruction
 0001:0002D430       Finalization
 0001:0002D4CC       EDisAsm
 0001:0002DF90       EnumPrinters
 0001:0002DF98       OpenPrinter
 0001:0002DFA0       ClosePrinter
 0001:0002DFA8       GetPrinterDriver
 0001:0002DFB0       TActiveXException.Create
 0001:0002DFFC       CheckMagicCode
 0001:0002E010       FindHandled
 0001:0002E114       SetItem
 0001:0002E168       InsertHandled
 0001:0002E264       GetOutOfMemoryCache
 0001:0002E280       FreeOutOfMemoryCache
 0001:0002E29C       ModuleFileName
 0001:0002E388       IsValidModule
 0001:0002E3D4       TEurekaLogList.GetItem
 0001:0002E3E8       ifelseStr
 0001:0002E460       ifStr
 0001:0002E4B4       TempPath
 0001:0002E4E0       OneString
 0001:0002E598       CompleteStr
 0001:0002E5D8       SimpleWord
 0001:0002E620       GetCompleteTimeStr
 0001:0002E8E0       Load
 0001:0002E92C       RTF_LoadFromStream
 0001:0002E958       RTF_LoadFromText
 0001:0002EA0C       SetRTFBackColor
 0001:0002EA34       TextToRTF
 0001:0002EB4C       GeneralToRTF
 0001:0002EFB0       AssemblerToRTF
 0001:0002F34C       CPUToRTF
 0001:0002F94C       ComputerName
 0001:0002F980       UserName
 0001:0002F9B4       UserFullName
 0001:0002FAD0       TextToHtml
 0001:0002FCC8       SetEventAddr
 0001:0002FD1C       IsDebugged
 0001:0002FD8C       IsValidHandle
 0001:0002FDEC       IsValidRunningThread
 0001:0002FE1C       IsCompatibleVersion
 0001:0002FE4C       CloneObject
 0001:0002FE80       FreeClonedObject
 0001:0002FEA0       GetCurrentTopOfStack
 0001:0002FEA8       StandardIsValidClass
 0001:0002FF08       IsValidClass
 0001:0002FFDC       IsValidObject
 0001:00030008       IsAParentClassStr
 0001:000300F0       IsAParentStr
 0001:00030118       IsAParent
 0001:00030188       IsAParents
 0001:000301DC       IsAParentClassStr_Unsafe
 0001:000302BC       IsAParentStr_Unsafe
 0001:000302D8       IsManageableObject
 0001:00030310       CreateVirtualFile
 0001:0003047C       DeleteVirtualFile
 0001:000304AC       StoreSharedDataEx
 0001:00030574       LoadSharedDataEx
 0001:00030648       IsWin95
 0001:00030664       IsWinNT4
 0001:00030680       IsWinVista
 0001:0003069C       GetOSType
 0001:00030980       GetOSBuild
 0001:000309B4       RFCDate
 0001:00030D84       IsDelphiException
 0001:00030D98       GetESP
 0001:00030DA0       GetTopOfStack
 0001:00030DA8       GetCallStackDump
 0001:000310BC       ExceptionLine
 0001:00031240       InternalCriticalError
 0001:000319C4       SetInternalError
 0001:00031B00       ClearInternalError
 0001:00031B14       SetErrorType
 0001:00031C10       HasWindowASize
 0001:00031C4C       GetWindowClassName
 0001:00031C98       IsApplicationWindow
 0001:00031D08       IsMainWindow
 0001:00031DA8       EnumWindowsProc
 0001:00031DE0       GetMainWindow
 0001:00031E00       EnumWindowsProc
 0001:00031E78       GetApplicationRect
 0001:00031EE0       IsCurrentProcessWindow
 0001:00031EF8       IsANewProcessWindow
 0001:00031F10       EnumWindowsProc
 0001:00031F40       PopulateCurrentProcessWindows
 0001:00031F5C       SetClipboardText
 0001:00032040       KillApplication
 0001:000320A0       THModuleStream.Create
 0001:000320E8       THModuleStream.Destroy
 0001:00032118       THModuleStream.SecureRead
 0001:00032154       ModuleInfoByHandle
 0001:00032210       ModuleInfoByAddr
 0001:00032224       IsModuleLibrary
 0001:00032304       FindModuleType
 0001:000324C8       GetModulePath
 0001:000325A4       GetModuleSize
 0001:00032634       GetModuleVer
 0001:000326D4       GetModuleDescriptionAndVersion
 0001:0003297C       PriorityToString
 0001:00032A80       GetProcessThreads
 0001:00032AB8       GetVersionNumber
 0001:00032B14       GetFileSize
 0001:00032B48       CompareModulesFunctions
 0001:00032B50       GetModulesWinNT
 0001:00032CB4       GetModulesWin9X
 0001:00032E44       GetModulesList
 0001:00032ED4       CompareProcessesFunctions
 0001:00032EDC       FindProcess
 0001:00032F5C       GetAllocatedMemory
 0001:00032F90       FillThreadsCount
 0001:0003307C       AddNewProcess
 0001:000331E8       RealPriority
 0001:00033234       FindFullPath
 0001:00033444       AddNewProcessEx
 0001:000335A0       BuildListTH
 0001:000336D8       BuildListPS
 0001:00033738       GetProcessesList
 0001:00033904       ModuleInitTable
 0001:00033914       LogicToPhysicAddr
 0001:00033920       IsCGI
 0001:00033954       InternalFileExists
 0001:000339C4       IsWinCGI
 0001:00033B20       IsISAPI
 0001:00033B5C       IsIntraWeb
 0001:00033B68       IsWeb
 0001:00033B94       IsGUI
 0001:00033BB0       WriteHTMLToWeb
 0001:00033FB8       CreateHTMLByLayout
 0001:00034248       GenerateHTML
 0001:0003436C       DirectoryExists
 0001:00034390       CreateTemplateFile
 0001:00034434       WriteTextToIntraWeb
 0001:0003485C       VersionWorkAround
 0001:00034884       IsLocalStorageProc
 0001:000348A4       IsStackFramesProc
 0001:000348D4       IsRTLCompiledWithStackFrames
 0001:000348E0       IsCompiledWithPackages
 0001:000348F4       ExceptionTypeByAddr
 0001:00034940       Is_HandleOnException_Handled
 0001:000349D8       GetResourceData
 0001:00034A20       ReadEncodeString
 0001:00034BC8       CheckForResult
 0001:00034D20       GetSourceInfoByAddr
 0001:00035490       GetSymbolAddr
 0001:00035604       ExtractStr
 0001:000357E0       GetDebugPartialInfo
 0001:000359F4       FindFunction
 0001:00035A94       ExtractDebugData
 0001:00035D8C       GetDebugInfosByAddr
 0001:00035E34       OpenLogFile
 0001:00035F00       CloseLogFile
 0001:00035F1C       CalcDuplicatedException
 0001:00036070       ExtractList
 0001:0003619C       GetRealFileName
 0001:000362B0       SavedScreenshot
 0001:00036330       TmpScreenshot
 0001:00036350       TmpLogFileName
 0001:000363D0       TmpZIPFileName
 0001:00036438       TmpOptionsFileName
 0001:000364D8       RealTmpLastHTMLPage
 0001:0003655C       TmpLastHTMLPage
 0001:0003657C       TmpXMLLogCopy
 0001:00036634       CreateHTMLFile
 0001:00036700       CreateXMLLogCopy
 0001:000367F4       LoadTextFile
 0001:0003688C       FillAttachedList
 0001:000369A8       SetLastExceptionObject
 0001:000369B0       GetModule_ProcedureEvent
 0001:00036A04       CallModuleEvent_ExceptionNotify
 0001:00036A54       CallExceptionNotify
 0001:00036AC0       CallExceptionNotifyEvents
 0001:00036ACC       CallModuleEvent_HandledExceptionNotify
 0001:00036B24       CallHandledExceptionNotify
 0001:00036B90       CallHandledExceptionNotifyEvents
 0001:00036B9C       CallModuleEvent_ExceptionActionNotify
 0001:00036C4C       CallExceptionActionNotify
 0001:00036D14       CallModuleEvent_ExceptionErrorNotify
 0001:00036DC0       CallExceptionErrorNotify
 0001:00036E88       CallPasswordRequest
 0001:00036EF4       CallModuleEvent_CustomDataRequest
 0001:00036F48       CallCustomDataRequest
 0001:00036FB8       CallCustomDataRequestEvents
 0001:00036FC4       CallModuleEvent_AttachedFilesRequest
 0001:00037018       CallAttachedFilesRequest
 0001:00037088       CallAttachedFilesRequestEvents
 0001:00037094       CallModuleEvent_CustomWebFieldsRequest
 0001:000370EC       CallCustomWebFieldsRequest
 0001:0003715C       CallCustomWebFieldsRequestEvents
 0001:00037168       CallModuleEvent_CustomButtonClickNotify
 0001:000371BC       CallCustomButtonClickEvent
 0001:00037228       CallCustomButtonClickEvents
 0001:00037234       CallModuleEvent_PasswordRequest
 0001:0003731C       MappedExceptionObject
 0001:000373F0       SaveGlobalExceptionRecord
 0001:000374B8       RestoreGlobalExceptionRecord
 0001:00037528       CopyStrings
 0001:000375AC       EurekaLog_PasswordRequestEvent
 0001:000375F0       EurekaLog_PasswordRequestEventEx
 0001:000376C0       EurekaLog_ExceptionNotifyEvent
 0001:00037764       EurekaLog_HandledExceptionNotifyEvent
 0001:00037808       EurekaLog_ExceptionActionNotifyEvent
 0001:000378AC       EurekaLog_ExceptionErrorNotifyEvent
 0001:00037950       EurekaLog_CustomDataRequestEventEx
 0001:000379F4       EurekaLog_AttachedFilesRequestEvent
 0001:00037A98       EurekaLog_CustomWebFieldsRequestEvent
 0001:00037B3C       EurekaLog_CustomButtonClickEvent
 0001:00037BE0       CanExit
 0001:00037BEC       SynchronizeEvent
 0001:00037CA0       RoundMatch
 0001:00037CB8       RoundMatchPtr
 0001:00037CC0       HookSymbolProcedure
 0001:00037D58       HookBPLProcedureByAddr
 0001:00037DCC       HookBPLProcedureBySymbol
 0001:00037DF4       GetEF
 0001:00037DFC       ASMAssigned
 0001:00037E04       IsExceptionHandled
 0001:00037FC0       CompareEurekaFunctions
 0001:00037FC8       MaxReadableSize
 0001:00038024       ReadAddr
 0001:00038044       ExportedFunctions
 0001:00038304       IsEurekaLogModule_Old
 0001:0003841C       IsEurekaLogModule_New
 0001:000384AC       IsEurekaLogModule
 0001:000384D0       IsEurekaLogCompatibleModule
 0001:00038504       GetEurekaLogModuleVersion
 0001:000386E4       LoadData_Old
 0001:00038854       GetPassword
 0001:000388E4       LoadData
 0001:00038D00       LoadDebugInformation
 0001:00038D60       AddModule
 0001:00038EA0       GetDebugDetail
 0001:00038EE0       AddToStack
 0001:00039034       NextItem
 0001:000390A4       PurgeCallStack
 0001:000391C4       CallStackByAddresses
 0001:00039484       GetCallStackByAddresses
 0001:000394D4       ProcessMessage
 0001:00039534       ApplicationRestore
 0001:00039578       SetLastExceptionData
 0001:000395A0       SetLastException
 0001:000395A8       GetBaseOfStack
 0001:000395B0       GetCurrentStackPointer
 0001:000395B8       SetLastExceptStack
 0001:000396A8       SetCustomErrorMessage
 0001:000396BC       GetExceptMessage
 0001:000396E8       SetRectangles
 0001:000397AC       DlgTemplate
 0001:00039AF4       CreateDialogFonts
 0001:00039D3C       DestroyDialogFonts
 0001:00039D8C       SetInitDialog
 0001:00039E60       CenterWindow
 0001:00039EDC       AutoCloseTimerProc
 0001:00039F0C       SetAutoCloseTimer
 0001:00039F38       UnsetAutoCloseTimer
 0001:00039F50       ResetAutoCloseTimer
 0001:00039F58       TopMostTimerProc
 0001:00039F9C       SetAutoTopMost
 0001:00039FBC       UnsetAutoTopMost
 0001:00039FCC       ISODateTime
 0001:0003A008       AddCustomHeaderToLog
 0001:0003A164       AddCustomHeadersToLog
 0001:0003A318       GetTextHeight
 0001:0003A470       GetTextWidth
 0001:0003A4F4       ShiftWndBottom
 0001:0003A534       NewDialogProc
 0001:0003A8E4       ShowRequestDialog
 0001:0003A978       AssignPriority
 0001:0003AA60       ExtractThreadByList
 0001:0003AAFC       GetThreadData
 0001:0003AC2C       CreateExceptionReport
 0001:0003AF10       CreateLeakReport
 0001:0003B0B0       CreateThreadStr
 0001:0003B118       GetActiveMonitorData
 0001:0003B26C       GetMonitorWorkAreaFromWndEx
 0001:0003B350       GetMonitorWorkAreaFromWnd
 0001:0003B374       GetMonitorWorkAreaFromActiveWnd
 0001:0003B398       CenterOnActiveWndMonitor
 0001:0003B3EC       InsertColumn
 0001:0003B468       SetDialogRect
 0001:0003B4B0       ReadState
 0001:0003B760       SaveState
 0001:0003B8F8       SetDialogState
 0001:0003B930       AdjustFlatStyle
 0001:0003B970       DetailsState
 0001:0003BED4       ModuleBmp
 0001:0003BFCC       ModulesListDialogProc
 0001:0003C700       ProcessesListDialogProc
 0001:0003CECC       AssemblerDialogProc
 0001:0003D0D4       MailSlotSend
 0001:0003D1CC       OpenIDEEditor
 0001:0003D34C       GetItemText
 0001:0003D398       CallStackDialogProc
 0001:0003E01C       GeneralDialogProc
 0001:0003E224       CPUDialogProc
 0001:0003E42C       GetDialogState
 0001:0003E450       AdjustDialog
 0001:0003E500       ActicatePage
 0001:0003E714       SetRectangles
 0001:0003E7E0       DrawSupportLink
 0001:0003E8BC       NewDialogProc
 0001:000404D4       DrawControl
 0001:00040558       DrawClickHere
 0001:0004063C       GetBottonWidth
 0001:000406C4       DrawButton
 0001:0004072C       GetEditText
 0001:00040794       AssignRequestData
 0001:00040864       IsValidEmail
 0001:000408A8       ChangeLogUserEmail
 0001:00040934       AssignOnCloseData
 0001:00040B34       NewMSDialogProc
 0001:00041884       CallExceptionActionNotify_atTerminating
 0001:000418A8       ShowDialog
 0001:00041AF0       CalsCoordinates
 0001:00041B48       SetRectangles
 0001:00041BE4       NewDialogProc
 0001:00041E28       ShowSendDialogThread
 0001:00041EAC       ShowSendDialog
 0001:00041F4C       BytesSwap
 0001:00041F7C       CalcCRC
 0001:00042000       InitDeflate
 0001:00042058       WriteIDAT
 0001:000420FC       IDATWrite
 0001:00042144       Encode
 0001:00042220       DeleteTree
 0001:0004225C       GetPaletteColors
 0001:00042314       CreateOctreeNode
 0001:00042378       AddColor
 0001:00042448       ReduceTree
 0001:000424E0       BytesPerScanline
 0001:00042500       ProcessImage
 0001:00042684       GetOptimizedPalette
 0001:000426F4       Create8bitBitmap
 0001:0004283C       InitScreenshot
 0001:00042BB0       CommonSaveToStream
 0001:00042C6C       AfterScreenshotToStream
 0001:00042F54       AfterScreenshot
 0001:00042FE4       FreeScreenshot
 0001:00043020       Error
 0001:0004302C       InternalSendMail
 0001:000438D0       EurekaLogSendEmail
 0001:00043974       Base64EncodeFromFile
 0001:00043AF4       ProcessDialogMessages
 0001:00043B60       SetSendDialogLabel
 0001:00043C54       SetSendDialogSingleLabel
 0001:00043C8C       SetSendDialogBar
 0001:00043CC0       CloseSendDialog
 0001:00043CE8       TSendObject.OnSent
 0001:00043CFC       HostName
 0001:00043D34       LoggedUserName
 0001:00043D4C       SetCounting
 0001:00043D70       ResetCounting
 0001:00043D9C       AttachedFile
 0001:00043FF8       AttachedFiles
 0001:0004411C       SendCommandEx
 0001:0004419C       SMTPSendSingleEmail
 0001:000449C8       SMTPSendEmail
 0001:00044C70       TSendDialogThread.Create
 0001:00044CB8       TSendDialogThread.Execute
 0001:00044CC4       WebCallBackProc
 0001:00044D9C       FindEOFLine
 0001:00044E1C       CreateTmpLogFile
 0001:00044F2C       LogFileMessage
 0001:00044F6C       SMTPSend
 0001:00044F80       EncodeURL
 0001:00045064       ShellSendMail
 0001:0004531C       CallExceptionActionNotify_atSendingEmail
 0001:00045340       CallExceptionActionNotify_atSentEmail
 0001:00045364       CallExceptionActionNotify_atSendingWebMessage
 0001:00045388       CallExceptionActionNotify_atSentWebMessage
 0001:000453AC       CallExceptionErrorNotify_atSentEmail
 0001:000453D0       CallExceptionErrorNotify_atSentWebMessage
 0001:000453F4       CreateZIPFile
 0001:000454D8       TmpCompressedFileName
 0001:00045564       DeleteExtraFiles
 0001:000456E8       SendEmailMessage
 0001:000458AC       SetError
 0001:00045A20       UploadHTTPFiles
 0001:00045BFC       UploadFTPFiles
 0001:00045D54       SetFullURL
 0001:00045D9C       SetWebTrakerError
 0001:00045F18       GenerateCustomWebFieldsString
 0001:00046030       UploadBugTrakerFiles
 0001:000462D0       SendWebMessage
 0001:0004641C       PrepareFilesToSend
 0001:000464DC       BlockingSendInternetMessage
 0001:00046770       SendInternetMessage
 0001:000467C4       ExceptNotifyAfter1
 0001:000468C0       ExceptNotifyAfter2
 0001:000468D4       ExceptNotifyAfter3
 0001:000468F0       TSendThread.Execute
 0001:0004694C       AddStr
 0001:0004699C       DebugToStr
 0001:00046A3C       GetDebugInfoEx
 0001:00046A8C       OnCallInstr
 0001:00046B9C       OnRefProc
 0001:00046BA4       ImmidiateDataProc
 0001:00046CCC       StartComment
 0001:00046D04       GetFunctionAsm
 0001:000473F0       PurgeString
 0001:000474BC       GetParameters
 0001:00047560       GetCompilationDate
 0001:000475BC       GetApplicationUpTime
 0001:000475DC       GetActiveFormClass
 0001:00047628       GetActiveFormText
 0001:000476BC       GetActiveControlClass
 0001:000476D4       GetActiveControlText
 0001:000476EC       GetOSUpdate
 0001:00047700       GetLocaleDataW
 0001:00047740       GetLocaleDataA
 0001:00047784       LocalesCallback
 0001:0004786C       GetLanguageString
 0001:00047894       GetOSLanguage
 0001:000478A0       GetOSCharset
 0001:000478B8       GetExceptionDate
 0001:000478D0       GetExceptionAddress
 0001:00047904       GetExceptionModuleName
 0001:000479C4       GetExceptionModuleVersion
 0001:00047A38       GetExceptionType
 0001:00047ADC       AccessViolationModuleInLongFormat
 0001:00047DA8       GetExceptionMessage
 0001:00047E7C       GetTotalMemory
 0001:00047F0C       GetFreeMemory
 0001:00047F9C       GetDiskInfo
 0001:00048080       GetFreeDisk
 0001:00048120       GetTotalDisk
 0001:000481C0       GetStartDate
 0001:000481D8       GetApplicationName
 0001:0004828C       GetProcessor
 0001:00048430       GetSystemUpTime
 0001:0004846C       GetDisplayMode
 0001:0004850C       CompleteIP
 0001:00048648       GetAdapterInfo
 0001:00048910       RemoveLastSeparator
 0001:00048990       GetNetworkData
 0001:00048B14       GetFileVersionEx
 0001:00048CD4       OSSupportDisplayAPI
 0001:00048D08       GetIndexKeyName
 0001:00048DF0       ReadDWordKey
 0001:00048ED8       GetVideoCardStr
 0001:00049630       GetDisplayDPI
 0001:00049688       AttrToString
 0001:000496DC       CompleteString
 0001:0004971C       GetCurrentUserPrivileges
 0001:000498E0       GetUserEmail
 0001:000498F4       GetCompanyName
 0001:00049A1C       FetchStr
 0001:00049A50       GetNTDefPrinter
 0001:00049AB0       GetDefaultPrinter
 0001:00049CD4       GetCurrentPrinterHandle
 0001:00049D48       GetPrinterStr
 0001:00049EB0       FormatComplete
 0001:00049F70       CallExceptionActionNotify_atSavingLogFile
 0001:00049F94       CallExceptionActionNotify_atSavedLogFile
 0001:00049FB8       CallExceptionErrorNotify_atSavedLogFile
 0001:00049FDC       SaveLogFile
 0001:0004A144       IsCompatibleException
 0001:0004A1DC       FindException
 0001:0004A230       CallExceptionActionNotify_atShowingExceptionInfo
 0001:0004A254       CallExceptionActionNotify_atShowedExceptionInfo
 0001:0004A278       CallWriteIntraWebText
 0001:0004A284       CreateGeneralText
 0001:0004AF38       GetEAX
 0001:0004AF90       GetEBX
 0001:0004AFE8       GetECX
 0001:0004B040       GetEDX
 0001:0004B098       GetESI
 0001:0004B0F0       GetEDI
 0001:0004B148       GetESP
 0001:0004B1A0       GetEIP
 0001:0004B1F8       GetDump
 0001:0004B3D8       GetStack
 0001:0004B468       GetEmptySection
 0001:0004B510       CreateLogText
 0001:0004D818       WriteToWeb
 0001:0004D9B8       MustSendMessage
 0001:0004D9F8       MustRestoreApplication
 0001:0004DA50       PurgeModulesList
 0001:0004DAA8       ShowType
 0001:0004DAF0       AddCallerCallStack
 0001:0004DB28       IsMainThread
 0001:0004DB38       IsBorlandThread
 0001:0004DB54       IsWindowsThread
 0001:0004DB64       CanPauseThisThread
 0001:0004DBA4       MustPauseThisThread
 0001:0004DBFC       SetEnvVariables
 0001:0004DDC0       InternalExceptNotify
 0001:0004F0B0       GetControlClass
 0001:0004F108       GetControlText
 0001:0004F224       TExceptionThread.Create
 0001:0004F380       TExceptionThread.Execute
 0001:0004F3F0       ResetGlobalVars
 0001:0004F434       ProcessMessages
 0001:0004F4D0       SetHandledWithEurekaLog
 0001:0004F538       IsHandledSafeCallException
 0001:0004F5AC       ExceptNotify
 0001:0004F940       GetThreadParams
 0001:0004F9B8       GetIntraWebExceptionType
 0001:0004FA14       IntraWeb_OnExceptionEvent_Old
 0001:0004FA9C       IntraWeb_OnExceptionEvent_New
 0001:0004FB1C       IntraWeb_OnExceptionEvent
 0001:0004FB30       SetIntraWebEvent
 0001:0004FB74       LockCheck
 0001:0004FB80       GoNotify
 0001:0004FCEC       GeneralRaise
 0001:0004FF0C       EurekaLog_CallGeneralRaise
 0001:0004FF40       Call_HookedRaise
 0001:0005001C       SetLastStackPointer
 0001:0005002C       SetLastECX
 0001:0005003C       HookedRaise
 0001:0005005C       EurekaLog_CallExceptObject
 0001:000501A4       Call_HookedExceptionObject
 0001:000501AC       HookedExceptionObject
 0001:000501D0       Call_HookedRtlUnwind
 0001:000502C4       HookedRtlUnwind
 0001:000502EC       HookedWriteFile
 0001:0005037C       HookedExceptProc
 0001:000503C4       TIdThread.HandledException
 0001:00050404       SetIndyEvent
 0001:00050448       HookedThreadExecute
 0001:000505A0       HookedRTLThreadProc
 0001:000506D0       HookedThreadProc
 0001:00050804       EurekaLog_CallCreateThread
 0001:00050898       EurekaLog_CallResumeThread
 0001:0005093C       EurekaLog_CallExitThread
 0001:0005095C       HookedCreateThread
 0001:00050BB8       HookedResumeThread
 0001:00050DD4       HookedExitThread
 0001:00050E90       HookedWriteClientProc
 0001:00050EC4       HookedHttpExtensionProc
 0001:00050F00       TEurekaStackList.Clear
 0001:00050F24       TEurekaStackList.Delete
 0001:00050F4C       TEurekaStackList.Destroy
 0001:00050F78       TEurekaStackList.GetItem
 0001:00050F8C       TEurekaModulesList.Clear
 0001:00050FB0       TEurekaModulesList.Delete
 0001:00051004       TEurekaModulesList.Destroy
 0001:00051030       TEurekaModulesList.GetItem
 0001:00051044       TEurekaProcessesList.Clear
 0001:00051068       TEurekaProcessesList.Delete
 0001:00051090       TEurekaProcessesList.Destroy
 0001:000510BC       TEurekaProcessesList.GetItem
 0001:000510D0       TEurekaThreadsList.Create
 0001:000511B8       TEurekaThreadsList.Destroy
 0001:000511F4       TEurekaThreadsList.Clear
 0001:00051218       TEurekaThreadsList.Delete
 0001:0005125C       TEurekaThreadsList.RemoveCurrentThread
 0001:000512B8       TEurekaThreadsList.FindByThreadHandle
 0001:000512E8       TEurekaThreadsList.FindByThreadObject
 0001:00051318       TEurekaThreadsList.FindByThreadID
 0001:00051348       TEurekaThreadsList.GetItem
 0001:0005135C       TEurekaThreadsList.BeginRead
 0001:00051368       TEurekaThreadsList.EndRead
 0001:00051374       TEurekaThreadsList.BeginWrite
 0001:00051380       TEurekaThreadsList.EndWrite
 0001:0005138C       TEurekaThreadsList.NewItem
 0001:000513C8       TEurekaThreadsList.PurgeList
 0001:00051438       TEurekaThreadsList.CallUnhandledException
 0001:000514B0       CanCallUnhandledException
 0001:000514F0       TEurekaThreadsList.SetExceptionType
 0001:00051560       TEurekaFunctionsList.Clear
 0001:00051584       TEurekaFunctionsList.Delete
 0001:000515AC       TEurekaFunctionsList.Destroy
 0001:000515D8       TEurekaFunctionsList.GetItem
 0001:000515EC       CalcAddr
 0001:00051610       TSafeObject.GetSafeCall
 0001:00051658       IsEurekaLogInstalled
 0001:00051660       CurrentEurekaLogOptions
 0001:0005184C       GenerateCallStack
 0001:00051B3C       CallEurekaLog
 0001:00051C68       ForceApplicationTermination
 0001:00051CAC       IsEurekaLogActiveInThread
 0001:00051D04       SetEurekaLogState
 0001:00051D0C       IsEurekaLogActive
 0001:00051D14       GetCurrentStackPointer
 0001:00051D1C       ExceptionManager
 0001:00051E58       Hooked_CGIHandleServerException
 0001:00051E88       Hooked_ISAPIHandleServerException
 0001:00051EB8       Hooked_VCLHandleException
 0001:00051F2C       Hooked_VCLShowException
 0001:00051F6C       Hooked_CLXHandleException
 0001:00051F9C       Hooked_CLXShowException
 0001:00051FF0       Hooked_IntraWebCreateServer
 0001:00052124       IsHTMLPage
 0001:000521A4       ExtractGZipStream
 0001:000522EC       Hooked_IntraWebSendResponse
 0001:00052558       Hooked_NTServiceLogMessage
 0001:0005260C       Hooked_IndyThreadHandleException
 0001:0005263C       Hooked_DoneExcept
 0001:00052694       TFreezeThread.Create
 0001:000526CC       TFreezeThread.Execute
 0001:00052924       InitCheckFreeze
 0001:000529D0       DoneCheckFreeze
 0001:00052A30       TEurekaModuleOptionsEx.SetActive
 0001:00052A78       TEurekaModuleOptionsEx.SetFreezeActivate
 0001:00052AC0       TEurekaModuleOptionsEx.StoreSharedData
 0001:00052AC8       TEurekaModuleOptionsEx.LoadSharedData
 0001:00052AD0       THTTPConnection.SetSendState
 0001:00052CE8       Create_EurekaLogUnitsList
 0001:00052D64       Internal_ResetLeaks
 0001:000530B8       Internal_AddLeak
 0001:00053238       Internal_ShowLeaks
 0001:000537B8       Internal_OverrunProc
 0001:000537D0       Internal_MultiFreeProc
 0001:000537E8       Internal_Finalization
 0001:000537F4       CheckForMemoryLeaks
 0001:00053888       RealAddr
 0001:0005388C       SetMainThreadTopOfStack
 0001:0005389C       HandleAnyExceptionAddr
 0001:000538E8       HandleOnExceptionAddr
 0001:00053940       HandleAutoExceptionAddr
 0001:000539A0       DoneExceptAddr
 0001:000539EC       ChangeFinalizationOrder
 0001:00053B10       HookLastInit
 0001:00053B98       HookLastFInit
 0001:00053BA8       Hook_InitializationAndFinalization
 0001:00053C64       IntraWeb_BPL
 0001:00053D44       Hook_OnExceptionEvents
 0001:000541D8       SetDebugHook
 0001:000541F4       HookingModuleName
 0001:0005420C       InstanceModuleName
 0001:00054218       HookingRTLModuleName
 0001:00054224       FindMainInstance
 0001:00054294       LoadFromFile
 0001:000542E8       CheckCrc32
 0001:000543EC       Init
 0001:00054BFC       Done
 0001:00054E54       Finalization
 0001:00055004       ExceptionLog
 0001:00055228       Finalization
 0001:00055258       CommCtrl
 0001:00055360       Finalization
 0001:00055390       Imm
 0001:000553D8       Finalization
 0001:00055408       ShlObj
 0001:00055410       Finalization
 0001:00055440       UrlMon
 0001:00055448       Finalization
 0001:00055478       WinInet
 0001:00055480       Finalization
 0001:000554B0       RegStr
 0001:000554C8       Finalization
 0001:000554F8       WinSpool
 0001:00055510       Finalization
 0001:00055540       CommDlg
 0001:00055548       Finalization
 0001:00055578       Dlgs
 0001:000557F4       TForm1.FormCreate
 0001:00055850       TForm1.FormDestroy
 0001:00055890       TForm1.btnShowObjectsClick
 0001:00055898       TForm1.btnNewObjectClick
 0001:00055944       TForm1.btnDeleteObjectClick
 0001:0005597C       TForm1.ShowList
 0001:00055A10       Finalization
 0001:00055A40       frmMain
 0001:00055A48       Finalization
 0001:00055C80       LearnDelphi
 0002:00000000       Module
 0002:00000018       BlockOverHead
 0002:0000001C       BlockOverFoot
 0002:00000020       NewMemoryManager
 0002:0000002C       EurekaLogCurrentVersion
 0002:00000030       UnassignedPointer
 0002:00000034       EMsgs
 0002:00000594       EVals
 0002:0000080C       EShowOptions
 0002:000008CC       EVariablesOptions
 0002:00000934       CriticalError
 0002:00000938       Digits
 0002:00000958       NoChars
 0002:00000978       TableHeader
 0002:00000988       SegmentsHeader
 0002:00000998       PublicsByNameHeader
 0002:000009A8       PublicsByValueHeader
 0002:000009B8       ResourceFilesHeader
 0002:000009C4       OpCodePrefixes
 0002:000009E4       OpCodeShortJump
 0002:00000A04       OpCodeReturn
 0002:00000A24       OpCodeLongJump1Byte
 0002:00000A44       OpCodeLongJump2Bytes
 0002:00000A64       AsmConst
 0002:00000B64       Initialized
 0002:00000B68       _z_errmsg
 0002:00000B90       ..
 0002:00000BEC       ..
 0002:00000BF8       ..
 0002:00000C00       ..
 0002:00000C18       ..
 0002:00000C6C       ..
 0002:00000CBC       ..
 0002:00000E2C       ..
 0002:00000F58       ..
 0002:000016C3       __dist_code
 0002:000018C3       __length_code
 0002:000019C4       Crc16Tab
 0002:00001BC4       crc_table_computed
 0002:00001BC8       p
 0002:00001BD8       cBase64Codec
 0002:00001C18       cBase64Codec
 0002:00001C98       MaxBugOccurrences
 0002:00001C9C       WinInet_Error_Text
 0002:000033CC       NetLib
 0002:000033D0       ProxyUserName
 0002:000033D4       ProxyPassword
 0002:000033D8       ProxyServer
 0002:000033DC       PassiveMode
 0002:000033E0       HTMLDelimiters
 0002:000036E0       HTMLChars
 0002:000047E4       ValidDomainChars
 0002:00004804       AlphaNumerics
 0002:00004824       EncodedChars
 0002:00004844       chars
 0002:00004864       OneByteOpcodes
 0002:00004C64       TwoByteOpcodes
 0002:00005064       GroupsOpcodes
 0002:000051A4       GroupsOperands
 0002:00005224       FloatingPointOpcodes
 0002:00005B24       ByteRegs1
 0002:00005B28       ByteRegs2
 0002:00005B2C       WordRegs1
 0002:00005B34       WordRegs2
 0002:00005B3C       ShowEurekaLogUnits
 0002:00005B40       EurekaLogUnits
 0002:00006028       UnAttachableThreads
 0002:00006038       CannotProcessMessagesExceptions
 0002:0000603C       ISAPI_SendError
 0002:00006040       ModulesList
 0002:00006044       ProcessesList
 0002:00006048       CurrentStackList
 0002:0000604C       LeaksStackList
 0002:00006050       Initialized
 0002:00006054       LastExceptionAddress
 0002:00006058       LastExceptionObject
 0002:0000605C       CriticalExceptObject
 0002:00006060       ModuleInfoHandle
 0002:00006064       CallFromCOMObject
 0002:00006068       MultiFreeExceptionText
 0002:0000606C       MemoryOverrunExceptionText
 0002:00006070       Global_IntoHandleException
 0002:00006074       Opened_LogFile_Name
 0002:00006078       fActivePage
 0002:0000607C       PNG_CRCListed
 0002:00006080       ColIdx
 0002:00006088       IDATHeader
 0002:0000608C       Mask
 0002:00006094       iLevel
 0002:00007000       ModuleIsLib
 0002:00007004       TlsIndex
 0002:0000700C       HInstance
 0002:00007010       .1
 0002:00007014       tlsBuffer
 0002:00007018       .3
 0002:0000701C       OverrunProc
 0002:00007020       MultiFreeProc
 0002:00007024       FinalizationProc
 0002:00007028       ResetLeaks
 0002:0000702C       ShowLeaks
 0002:00007030       AddLeak
 0002:00007034       .1
 0002:00007038       OldMemoryManager
 0002:00007044       AllocatedList_Lock
 0002:00007048       AllocatedList_Start
 0002:0000704C       AllocatedList_End
 0002:00007050       TObjectCreate
 0002:00007054       TObjectNewInstance
 0002:00007058       InstallNewMemoryManager
 0002:00007059       UseNewMemoryManager
 0002:0000705A       LeaksOptions
 0002:0000705C       MemoryPages
 0002:00007060       IsMMHost
 0002:00007064       OriginalMemMgr
 0002:00007070       .1
 0002:00007074       .1
 0002:00007078       .5
 0002:0000707C       LastEurekaVersion
 0002:00007080       .4
 0002:00007084       InternalIntoIDE
 0002:00007088       .92
 0002:0000708C       .1
 0002:00007090       .1
 0002:00007094       .1
 0002:00007098       HookedProcedures
 0002:0000709C       DllList
 0002:000070A0       HookedMethodsList
 0002:000070A4       .1
 0002:000070A8       .4
 0002:000070AC       .2
 0002:000070B0       ..
 0002:000090B0       ..
 0002:0000993C       .1
 0002:00009940       crc_table
 0002:00009D40       .1
 0002:00009D44       CV
 0002:00009D4C       KeyData
 0002:00009D5C       .1
 0002:00009D60       .3
 0002:00009D64       .7
 0002:00009D68       InternetOpen
 0002:00009D6C       InternetConnect
 0002:00009D70       HttpOpenRequest
 0002:00009D74       HttpAddRequestHeaders
 0002:00009D78       HttpSendRequest
 0002:00009D7C       HttpSendRequestEx
 0002:00009D80       InternetWriteFile
 0002:00009D84       HttpEndRequest
 0002:00009D88       HttpQueryInfo
 0002:00009D8C       InternetCloseHandle
 0002:00009D90       InternetQueryOption
 0002:00009D94       InternetSetOption
 0002:00009D98       FtpOpenFile
 0002:00009D9C       InternetGetLastResponseInfo
 0002:00009DA0       InternetOpenUrl
 0002:00009DA4       InternetReadFile
 0002:00009DA8       InternetGetConnectedState
 0002:00009DAC       .3
 0002:00009DB0       .3
 0002:00009DB4       .2
 0002:00009DB8       .2
 0002:00009DBC       ExceptionNotify
 0002:00009DC0       HandledExceptionNotify
 0002:00009DC4       ExceptionActionNotify
 0002:00009DC8       ExceptionErrorNotify
 0002:00009DCC       PasswordRequest
 0002:00009DD0       CustomDataRequest
 0002:00009DD4       AttachedFilesRequest
 0002:00009DD8       CustomWebFieldsRequest
 0002:00009DDC       CustomButtonClickNotify
 0002:00009DE0       .21
 0002:00009DE4       Kernel_RaiseException
 0002:00009DE8       Kernel_RtlUnwind
 0002:00009DEC       Kernel_CreateThread
 0002:00009DF0       Kernel_ResumeThread
 0002:00009DF4       Kernel_ExitThread
 0002:00009DF8       Kernel_WriteFile
 0002:00009DFC       ISAPI_HttpExtensionProc
 0002:00009E00       ISAPI_WriteClientProc
 0002:00009E04       ISAPI_Proc
 0002:00009E08       ServerECB
 0002:00009E0C       ExceptionCriticalSection
 0002:00009E24       OldExceptProc
 0002:00009E28       ThreadsList
 0002:00009E2C       StartingDate
 0002:00009E34       OldExceptObjProc
 0002:00009E38       CurrentOptions
 0002:00009E3C       CGIOutputFile
 0002:00009E40       LanguageStr
 0002:00009E44       ExceptionNumber
 0002:00009E48       HandleAnyExceptionAddr_Variable
 0002:00009E4C       HandleOnExceptionAddr_Variable
 0002:00009E50       HandleAutoExceptionAddr_Variable
 0002:00009E54       TerminateApplication
 0002:00009E58       LastInitializationPtr
 0002:00009E5C       LastFinalizationPtr
 0002:00009E60       IntraWeb_CreateServer
 0002:00009E64       IntraWeb_OnException_Old
 0002:00009E68       IntraWeb_OnException_New
 0002:00009E6C       Indy_OnException
 0002:00009E74       IntraWeb_ShowMessage
 0002:00009E78       IntraWeb_SendResponse
 0002:00009E7C       VCLHandleException
 0002:00009E80       VCLShowException
 0002:00009E84       NTService_LogMessage
 0002:00009E88       IndyThread_HandleException
 0002:00009E8C       DoneExcept
 0002:00009E90       CGIHandleException
 0002:00009E94       ISAPIHandleException
 0002:00009E98       CLXHandleException
 0002:00009E9C       CLXShowException
 0002:00009EA0       LastHTMLPage
 0002:00009EA4       LastInitPointer
 0002:00009EA8       IntoInitialization
 0002:00009EA9       IntoFinalization
 0002:00009EAC       OriginalThreadProc
 0002:00009EB0       IntraWebApplication
 0002:00009EB4       IntraWebServerController
 0002:00009EB8       IntraWebCompressedPage
 0002:00009EBC       IntraWeb_Version
 0002:00009EC0       IntraWeb_NewEvent
 0002:00009EC4       CurrentAsmErrorLine
 0002:00009EC8       CurrentGeneralErrorText
 0002:00009ECC       CurrentAsmErrorText
 0002:00009ED0       CurrentCPUErrorText
 0002:00009ED4       OnlySafeCallExceptions
 0002:00009ED5       CanHookLibraries
 0002:00009ED8       FreezeThread
 0002:00009EDC       MainThreadHandle
 0002:00009EE0       MainThreadTopOfStack
 0002:00009EE4       LastExceptAddr
 0002:00009EE8       RaisedExceptAddr
 0002:00009EEC       LastExceptThreadID
 0002:00009EF0       LastExceptObject
 0002:00009EF4       LastDelphiException
 0002:00009EF8       LastExceptMessage
 0002:00009EFC       CustomExceptMessage
 0002:00009F00       LastExceptionRecord
 0002:00009F04       LastExceptionLog
 0002:00009F08       LastLog
 0002:00009F0C       CanSendError_Show
 0002:00009F0D       CanAttachScreenshot_Show
 0002:00009F0E       CanCopy_Show
 0002:00009F0F       CanSupport_Show
 0002:00009F10       CanSendMessage
 0002:00009F11       CanAttachScreenshot
 0002:00009F12       CanCopy
 0002:00009F13       DuplicatedException
 0002:00009F14       StartDir
 0002:00009F18       SynchronizeExcept
 0002:00009F1C       SynchronizeRaise
 0002:00009F20       ThreadWrapperAddr
 0002:00009F24       InternalErrorCode
 0002:00009F28       InternalErrorMsg
 0002:00009F2C       EurekaLogList
 0002:00009F30       CurrentRequestValue
 0002:00009F34       UserEmail
 0002:00009F38       ThreadsCriticalSection
 0002:00009F50       InactiveThreads
 0002:00009F54       EurekaLogUnitsList
 0002:00009F58       ActivateEurekaLog
 0002:00009F59       NotLoadDebugInfo
 0002:00009F5C       ModuleInfoData
 0002:00009F60       AutoCloseTimer
 0002:00009F64       CurrentDialog
 0002:00009F68       UseTopMost
 0002:00009F6C       ExceptionsTime
 0002:00009F70       ExceptionTime
 0002:00009F78       DbgSection
 0002:00009F7C       CurrentProcessWindowsList
 0002:00009F80       IndyHooked
 0002:00009F84       LastDumpCriticalSection
 0002:00009F9C       LastExceptionThreadID
 0002:00009FA0       LastExceptionCallStackAddress
 0002:00009FA4       LastExceptionCallStackSize
 0002:00009FA8       LastExceptionCallStackDump
 0002:00009FAC       HandledCacheCount
 0002:00009FB0       HandledCache
 0002:0000A0A0       HandledCacheCriticalSection
 0002:0000A0B8       DebugHook_Assigned
 0002:0000A0BC       LastExceptionType
 0002:0000A0C0       LastExceptionMessage
 0002:0000A0C4       LastBugID
 0002:0000A0C8       DialogType
 0002:0000A0C9       IsFilterDialog
 0002:0000A0CC       LeakTotalSize
 0002:0000A0D0       LeakTotalCount
 0002:0000A0D4       LeakAddr
 0002:0000A0D8       ManualAntiFreeze
 0002:0000A0DC       IDC_CURSOR
 0002:0000A0E0       CannotUseThread
 0002:0000A0E1       NoSynchronizeEvent
 0002:0000A0E4       OutOfMemoryCache
 0002:0000A0E8       Global_Execute
 0002:0000A0E9       Global_Handled
 0002:0000A0EA       Global_Retry
 0002:0000A0EB       Global_CloseDialog
 0002:0000A0EC       OldGlobal_ExceptionRecord
 0002:0000A110       Global_ExceptionRecord
 0002:0000A134       MustFreeGlobalMappedObject
 0002:0000A138       Global_CurrentEvent
 0002:0000A13C       Global_Password
 0002:0000A140       Global_LastInitPassword
 0002:0000A144       Global_AttachedFiles
 0002:0000A148       Global_WebFields
 0002:0000A14C       Global_DataFields
 0002:0000A150       Global_Module
 0002:0000A154       Global_IntraWebText
 0002:0000A158       Global_WebTextID
 0002:0000A15C       Cached_LogFile
 0002:0000A160       fDlgBack
 0002:0000A164       fMemoBack
 0002:0000A168       fActive
 0002:0000A16C       fCaptionFont
 0002:0000A170       fVariableFont
 0002:0000A174       fFixedFont1
 0002:0000A178       fFixedFont2
 0002:0000A17C       fLinkFont
 0002:0000A180       fLinkFont2
 0002:0000A184       fBigFont
 0002:0000A188       FixedFontSize
 0002:0000A18C       CaptionFontName
 0002:0000A190       FixedFontName1
 0002:0000A194       FixedFontName2
 0002:0000A198       NonClientMetrics
 0002:0000A2EC       fMonitor
 0002:0000A2F0       fSendBmp
 0002:0000A2F4       fMonitorInfo
 0002:0000A30C       fListViewItems
 0002:0000A310       rSupport
 0002:0000A320       rClick
 0002:0000A330       SupportLinkActive
 0002:0000A331       ClickLinkActive
 0002:0000A334       OriginalWidth
 0002:0000A338       OriginalHeight
 0002:0000A33C       RealLeft
 0002:0000A340       RealTop
 0002:0000A344       RealWidth
 0002:0000A348       RealHeight
 0002:0000A34C       ListWidth
 0002:0000A350       ListHeight
 0002:0000A354       TextWidth
 0002:0000A358       LeftButton
 0002:0000A35C       TopButton
 0002:0000A360       WindowState
 0002:0000A364       ColWidths
 0002:0000A3A4       DetailsActive
 0002:0000A3A5       ShowInDetailsMode
 0002:0000A3A8       MainDialog
 0002:0000A3AC       IsDialogShowed
 0002:0000A3B0       DialogHeight
 0002:0000A3B4       OldForegroundWnd
 0002:0000A3B8       MonitorRect
 0002:0000A3C8       CAPTION_HEIGHT
 0002:0000A3CC       FixedTmpOptionsFile
 0002:0000A7CC       GlobalSendValues
 0002:0000A7E4       SavedLastHTMLPage
 0002:0000A7E8       PNG_ColoursCount
 0002:0000A7EC       PNG_RowBytes
 0002:0000A7F0       PNG_DataSize
 0002:0000A7F4       PNG_ImgData
 0002:0000A7F8       PNG_Data
 0002:0000A7FC       PNG_HeaderData
 0002:0000A80C       PNG_Encode_Filter
 0002:0000A810       PNG_Encode_Data
 0002:0000A814       PNG_CRCList
 0002:0000AC14       PNG_pal
 0002:0000AC18       PNG_UsePal
 0002:0000AC1C       PNG_HWindow
 0002:0000AC20       PNG_FocusWnd
 0002:0000AC24       PNG_Cursor
 0002:0000AC28       PNG_DCScreen
 0002:0000AC2C       PNG_DCCompatible
 0002:0000AC30       PNG_Bitmap
 0002:0000AC34       PNG_Width
 0002:0000AC38       PNG_Height
 0002:0000AC3C       .1
 0002:0000AC40       .1
 0002:0000AC44       .1
 0002:0000AC48       .1
 0002:0000AC4C       .1
 0002:0000AC50       .1
 0002:0000AC54       .3
 0002:0000AC58       .1
 0002:0000AC5C       .1
 0002:0000AC60       Form1
 0002:0000AC64       .2


Line numbers for ELeaks(ELeaks.pas) segment .text

   130 0001:00000B48   131 0001:00000B52   132 0001:00000B5B   133 0001:00000B64
   134 0001:00000B66   135 0001:00000B68   137 0001:00000B6C   138 0001:00000B6E
   139 0001:00000B78   140 0001:00000B7A   141 0001:00000B7B   142 0001:00000B7C
   135 0001:00000B7D   144 0001:00000B81   149 0001:00000B88   150 0001:00000B92
   151 0001:00000BA0   153 0001:00000BA7   154 0001:00000BB7   155 0001:00000BB9
   150 0001:00000BBA   157 0001:00000BBE   158 0001:00000BC7   166 0001:00000BCC
   167 0001:00000BCF   182 0001:00000BD1   183 0001:00000BD4   184 0001:00000BD7
   185 0001:00000BDD   186 0001:00000BDF   187 0001:00000BE2   188 0001:00000BE5
   189 0001:00000BEB   194 0001:00000BED   195 0001:00000BF2   198 0001:00000BF3
   199 0001:00000BF8   203 0001:00000BFC   204 0001:00000BFF   206 0001:00000C01
   207 0001:00000C03   208 0001:00000C06   211 0001:00000C07   212 0001:00000C0C
   242 0001:00000C10   243 0001:00000C1D   244 0001:00000C1F   247 0001:00000C4C
   248 0001:00000C54   251 0001:00000C58   252 0001:00000C67   253 0001:00000C6F
   254 0001:00000C71   257 0001:00000C7B   262 0001:00000C98   263 0001:00000CA6
   264 0001:00000CAF   265 0001:00000CB8   268 0001:00000CCE   270 0001:00000CDD
   271 0001:00000CEC   272 0001:00000CF2   276 0001:00000D00   277 0001:00000D03
   280 0001:00000D14   285 0001:00000D27   286 0001:00000D37   287 0001:00000D4B
   291 0001:00000D59   292 0001:00000D6C   295 0001:00000D74   296 0001:00000D7B
   306 0001:00000DBF   318 0001:00000DC4   319 0001:00000DF0   322 0001:00000DF4
   324 0001:00000DFF   325 0001:00000E45   320 0001:00000E52   327 0001:00000E89
   339 0001:00000E90   340 0001:00000E97   341 0001:00000E99   344 0001:00000EA9
   345 0001:00000EC1   347 0001:00000EC8   359 0001:00000ECC   360 0001:00000ECE
   361 0001:00000ED0   365 0001:00000ED2   367 0001:00000ED6   369 0001:00000ED8
   372 0001:00000EDD   373 0001:00000EE4   374 0001:00000EEF   370 0001:00000EF6
   376 0001:00000F01   380 0001:00000F04   381 0001:00000F07   400 0001:00000F08
   402 0001:00000F16   403 0001:00000F19   404 0001:00000F1C   405 0001:00000F23
   409 0001:00000F26   410 0001:00000F2C   411 0001:00000F32   414 0001:00000F38
   416 0001:00000F3D   418 0001:00000F49   419 0001:00000F5A   422 0001:00000F5C
   423 0001:00000F61   424 0001:00000F68   425 0001:00000F6E   414 0001:00000F72
   426 0001:00000F77   433 0001:00000F80   435 0001:00000F87   436 0001:00000F8E
   439 0001:00000F91   441 0001:00000F95   442 0001:00000FA3   445 0001:00000FA5
   447 0001:00000FAA   449 0001:00000FB7   450 0001:00000FC0   451 0001:00000FD1
   476 0001:00000FD8   477 0001:00000FE6   479 0001:00000FE9   481 0001:00000FF6
   482 0001:00000FFA   483 0001:00000FFF   485 0001:00001013   490 0001:00001015
   492 0001:0000101B   493 0001:0000102B   494 0001:0000104B   496 0001:0000105F
   497 0001:00001062   501 0001:0000106B   504 0001:0000107D   505 0001:00001080
   508 0001:00001089   511 0001:000010A2   512 0001:000010A5   515 0001:000010AE
   518 0001:000010C5   519 0001:000010C8   522 0001:000010D1   525 0001:000010E8
   526 0001:000010EB   529 0001:000010F4   532 0001:00001106   533 0001:00001109
   536 0001:0000110F   539 0001:00001121   540 0001:00001124   543 0001:0000112A
   546 0001:0000113B   547 0001:0000113E   550 0001:00001144   552 0001:00001150
   553 0001:00001160   555 0001:00001171   556 0001:00001174   561 0001:00001178
   563 0001:00001182   479 0001:00001185   567 0001:0000118C   568 0001:0000118F
   569 0001:00001191   572 0001:00001197   574 0001:0000119C   575 0001:000011B1
   576 0001:000011BD   580 0001:000011C0   581 0001:000011C1   570 0001:000011C4
   584 0001:000011CB   596 0001:000011D4   597 0001:000011DE   600 0001:000011E7
   603 0001:000011E9   604 0001:000011ED   605 0001:000011F0   606 0001:00001201
   607 0001:0000120C   608 0001:00001217   611 0001:00001221   612 0001:0000122B
   615 0001:00001231   618 0001:00001238   620 0001:00001242   622 0001:0000124B
   623 0001:00001252   624 0001:00001257   625 0001:0000125F   629 0001:00001267
   630 0001:0000126D   631 0001:00001273   632 0001:00001277   635 0001:0000127C
   636 0001:00001286   644 0001:00001290   645 0001:00001299   646 0001:0000129D
   647 0001:0000129F   650 0001:000012A8   651 0001:000012B0   654 0001:000012BD
   656 0001:000012C5   659 0001:000012C9   661 0001:000012D2   664 0001:000012D9
   667 0001:000012DD   668 0001:000012E8   671 0001:000012F2   673 0001:000012FC
   674 0001:00001300   675 0001:0000130C   677 0001:00001317   678 0001:00001327
   680 0001:00001336   688 0001:00001340   691 0001:00001347   693 0001:00001350
   694 0001:0000135A   697 0001:00001367   701 0001:00001370   703 0001:00001384
   704 0001:00001397   714 0001:00001398   715 0001:0000139B   717 0001:0000139D
   729 0001:0000139F   740 0001:000013A2   743 0001:000013A3   744 0001:000013A8
   748 0001:000013AC   749 0001:000013B1   750 0001:000013B4   752 0001:000013B8
   753 0001:000013BF   756 0001:000013C8   759 0001:000013D5   761 0001:000013E0
   762 0001:000013E9   764 0001:000013FD   767 0001:00001411   768 0001:0000141F
   773 0001:00001424   774 0001:0000142D   776 0001:0000143A   779 0001:00001442
   780 0001:0000144B   785 0001:00001450   786 0001:0000145C   788 0001:00001469
   790 0001:00001471   791 0001:00001480   794 0001:0000148D   796 0001:0000149B
   797 0001:000014A4   798 0001:000014B9   806 0001:000014C0   808 0001:000014C2
   807 0001:000014C5   809 0001:000014CF   814 0001:000014D0   815 0001:000014D3
   817 0001:000014D8   819 0001:000014F0   820 0001:000014F4   815 0001:000014F5
   821 0001:000014FA   822 0001:00001509   824 0001:0000150E   826 0001:00001532
   827 0001:00001536   822 0001:00001537   828 0001:0000153E   832 0001:00001540
   833 0001:00001542   835 0001:0000154A   836 0001:00001562   841 0001:00001564
   842 0001:0000156C   844 0001:00001572   845 0001:0000157C   847 0001:00001580
   849 0001:0000158D   850 0001:00001597   851 0001:0000159E   852 0001:000015A4
   853 0001:000015A8   855 0001:000015AC   845 0001:000015B6   857 0001:000015BA
   863 0001:000015C0   864 0001:000015C9   865 0001:000015D0   866 0001:000015D3
   868 0001:000015D5   869 0001:000015DF   871 0001:000015EC   872 0001:000015F0
   873 0001:000015F3   875 0001:000015F6   876 0001:000015FA   877 0001:000015FD
   878 0001:00001606   903 0001:0000160C   904 0001:00001617   906 0001:0000161C
   909 0001:0000162D   910 0001:00001634   912 0001:0000163C   914 0001:0000163E
   915 0001:00001648   918 0001:00001669   922 0001:0000168A   924 0001:0000168E
   925 0001:000016A6   927 0001:000016B6   928 0001:000016BC   931 0001:000016C1
   912 0001:000016C2   934 0001:000016CB   936 0001:000016CD   937 0001:000016D7
   939 0001:000016E7   943 0001:00001708   945 0001:0000170C   946 0001:00001724
   948 0001:00001734   949 0001:0000173A   952 0001:0000173C   934 0001:0000173D
   954 0001:00001745   964 0001:0000174C   965 0001:00001778   966 0001:00001782
   967 0001:00001784   968 0001:00001788   969 0001:0000178E   971 0001:00001792
   973 0001:000017A2   976 0001:000017AC   977 0001:000017CE   979 0001:000017DF
   981 0001:000017E5   982 0001:000017E9   985 0001:000017EB   969 0001:000017EE
   987 0001:00001814   993 0001:0000181C   994 0001:0000183C   995 0001:0000183E
   997 0001:00001844   998 0001:0000184A  1000 0001:0000184E  1002 0001:0000185A
  1003 0001:00001862  1005 0001:00001875  1006 0001:00001877  1009 0001:00001879
   998 0001:0000187C  1011 0001:0000189F  1013 0001:000018A8  1015 0001:000018AB
  1017 0001:000018B4  1018 0001:000018C3  1019 0001:000018D2  1020 0001:000018E1
  1021 0001:000018F0  1022 0001:000018FF  1023 0001:0000190E  1024 0001:0000191A
  1025 0001:00001926  1028 0001:00001932  1030 0001:00001940  1031 0001:0000194C
  1032 0001:00001958  1043 0001:00001964  1050 0001:000019BC  1051 0001:000019BE
  1052 0001:000019C3  1054 0001:000019C7  1056 0001:000019D5  1057 0001:000019DC
  1052 0001:000019DF  1059 0001:000019E3  1066 0001:000019E4  1067 0001:000019E7
  1068 0001:000019F6  1074 0001:000019F8  1075 0001:00001A18  1077 0001:00001A21
  1079 0001:00001A2D  1080 0001:00001A35  1083 0001:00001A52  1085 0001:00001A5F
  1086 0001:00001A92  1089 0001:00001AA8  1090 0001:00001AAB  1091 0001:00001ABA
  1104 0001:00001ABC  1112 0001:00001AC0  1113 0001:00001AC6  1119 0001:00001ACA
  1120 0001:00001AD7  1129 0001:00001AE7  1139 0001:00001AEE  1141 0001:00001AF2
  1142 0001:00001B01  1143 0001:00001B14  1144 0001:00001B1B  1145 0001:00001B1F
  1153 0001:00001B31  1113 0001:00001B34  1155 0001:00001B38  1160 0001:00001B3C
  1161 0001:00001B40  1163 0001:00001B49  1164 0001:00001B4F  1166 0001:00001B53
  1167 0001:00001B5A  1164 0001:00001B5D  1169 0001:00001B61  1174 0001:00001B64
  1175 0001:00001B68  1177 0001:00001B71  1178 0001:00001B77  1180 0001:00001B7B
  1181 0001:00001B7D  1182 0001:00001B80  1178 0001:00001B86  1184 0001:00001B8A
  1189 0001:00001B90  1190 0001:00001B94  1191 0001:00001B9A  1193 0001:00001B9E
  1194 0001:00001BAB  1191 0001:00001BAE  1196 0001:00001BB2  1215 0001:00001BB8
  1216 0001:00001BC1  1217 0001:00001BC5  1218 0001:00001BCD  1220 0001:00001BD3
  1222 0001:00001BDC  1224 0001:00001BE2  1225 0001:00001BE6  1226 0001:00001BF4
  1228 0001:00001BFA  1229 0001:00001BFF  1231 0001:00001C03  1233 0001:00001C1A
  1235 0001:00001C1F  1218 0001:00001C28  1237 0001:00001C2E  1238 0001:00001C39
  1247 0001:00001C40  1248 0001:00001C58  1250 0001:00001C65  1251 0001:00001C73
  1254 0001:00001C80  1255 0001:00001C8F  1257 0001:00001CA0  1258 0001:00001CAD
  1259 0001:00001CB7  1261 0001:00001CC5  1263 0001:00001CD8  1264 0001:00001CE2
  1270 0001:00001CF8  1277 0001:00001D0A  1278 0001:00001D17  1287 0001:00001D1C
  1288 0001:00001D29  1297 0001:00001D2E  1298 0001:00001D3B  1307 0001:00001D40
  1308 0001:00001D4D  1317 0001:00001D52  1318 0001:00001D5F  1327 0001:00001D64
  1328 0001:00001D71  1334 0001:00001D76  1335 0001:00001D83  1340 0001:00001D95
  1341 0001:00001DA2  1342 0001:00001DAC  1343 0001:00001DB9  1346 0001:00001DDA
  1380 0001:00001E35  1404 0001:000020AC  1405 0001:000020D5  1406 0001:000020F2
  1408 0001:00002107  1409 0001:0000210F  1410 0001:00002170  1428 0001:00002190
  1429 0001:00002198  1430 0001:0000219D  1431 0001:000021A7  1433 0001:000021AB
  1434 0001:000021B7  1435 0001:000021BE  1437 0001:000021CE  1439 0001:000021D8
  1440 0001:000021E2  1441 0001:000021E6  1442 0001:000021FB  1444 0001:000021FF
  1445 0001:00002201  1447 0001:0000220F  1448 0001:00002212  1451 0001:00002215
  1452 0001:00002223  1454 0001:00002236  1456 0001:0000223D  1457 0001:00002240
  1458 0001:0000224A  1459 0001:0000224C  1460 0001:0000224D  1461 0001:00002254
  1465 0001:00002266  1467 0001:00002274  1468 0001:0000227D  1469 0001:0000228C
  1470 0001:000022A2  1471 0001:000022B3  1486 0001:000022B8  1487 0001:000022BE
  1488 0001:000022D7  1489 0001:000022E1  1494 0001:000022FC  1495 0001:00002302
  1497 0001:00002304  1499 0001:0000231C  1501 0001:00002326  1502 0001:00002335
  1503 0001:0000233D  1504 0001:00002344  1505 0001:0000234C  1507 0001:00002353
  1508 0001:00002361  1510 0001:0000236B  1513 0001:00002374  1514 0001:0000237C
  1516 0001:00002383  1519 0001:000023F0  1520 0001:000023F3  1522 0001:000023FC
  1523 0001:0000240C  1525 0001:00002413  1532 0001:00002438  1533 0001:0000245A
  1534 0001:00002480  1535 0001:000024BA  1538 0001:000024C0  1539 0001:000024C3
  1540 0001:000024D6  1542 0001:000024D8  1543 0001:000024ED  1545 0001:000024F6
  1546 0001:000024FD  1547 0001:0000250B  1549 0001:00002547  1553 0001:00002549
  1556 0001:00002550  1557 0001:0000255F  1560 0001:0000256E  1561 0001:00002575
  1562 0001:0000257C  1565 0001:00002583  1566 0001:0000258A  1569 0001:00002591
  1572 0001:00002598  1573 0001:0000259F  1574 0001:000025A6  1577 0001:000025AD
  1583 0001:000025B7  1584 0001:000025E3  1587 0001:00002664  1589 0001:00002667
  1592 0001:0000266E  1595 0001:00002673  1597 0001:0000267D  1598 0001:00002682
  1601 0001:00002684  1602 0001:0000268A  1603 0001:000026A9  1604 0001:000026C8
  1605 0001:000026E3  1607 0001:000026ED  1608 0001:000026FB  1610 0001:00002700
  1611 0001:00002722  1613 0001:0000272B  1614 0001:00002730  1618 0001:0000273A
  1620 0001:00002741  1622 0001:00002755  1624 0001:00002770  1627 0001:00002850
  1628 0001:00002856  1629 0001:00002864  1630 0001:00002872  1632 0001:00002890
  1634 0001:000028AB  1642 0001:000028D8  1644 0001:0000290B  1638 0001:00002910
  1639 0001:0000291C  1641 0001:00002921

Line numbers for ETypes(ETypes.pas) segment .text

   126 0001:00002DAC   126 0001:00002DB3

Line numbers for EConsts(EConsts.pas) segment .text

   734 0001:000056F0   734 0001:000056F7

Line numbers for ECore(ECore.pas) segment .text

   461 0001:000059AC   462 0001:000059BA   463 0001:000059C1   464 0001:000059DC
   465 0001:000059E4   468 0001:000059F1   469 0001:000059FB   471 0001:00005A0A
   479 0001:00005A18   480 0001:00005A34   481 0001:00005A3D   484 0001:00005A47
   486 0001:00005A54   487 0001:00005A56   488 0001:00005A59   489 0001:00005A79
   491 0001:00005A82   492 0001:00005A95   493 0001:00005AA0   494 0001:00005AB6
   495 0001:00005AC2   498 0001:00005AD8   482 0001:00005AD9   500 0001:00005B0A
   510 0001:00005B14   511 0001:00005B22   513 0001:00005B29   514 0001:00005B36
   515 0001:00005B3C   516 0001:00005B4A   517 0001:00005B5C   519 0001:00005B60
   520 0001:00005B75   523 0001:00005B94   525 0001:00005BA5   527 0001:00005BD0
   528 0001:00005BD3   529 0001:00005BDA   530 0001:00005BEB   531 0001:00005BFC
   537 0001:00005C20   538 0001:00005C29   539 0001:00005C2E   540 0001:00005C39
   541 0001:00005C47   544 0001:00005C50   545 0001:00005C66   546 0001:00005C79
   547 0001:00005CAD   552 0001:00005CC8   553 0001:00005D06   554 0001:00005D0F
   555 0001:00005D4C   557 0001:00005D5C   559 0001:00005DCB   572 0001:00005DE0
   573 0001:00005E08   574 0001:00005E39   576 0001:00005E49   577 0001:00005E92
   625 0001:00005EA8   626 0001:00005EB2   627 0001:00005EB4   630 0001:00005EE4
   631 0001:00005EED   634 0001:00005EF1   635 0001:00005F01   636 0001:00005F09
   637 0001:00005F0B   640 0001:00005F15   643 0001:00005F30   644 0001:00005F36
   645 0001:00005F44   657 0001:00005F48   658 0001:00005F4C   659 0001:00005F4E
   662 0001:00005F5E   663 0001:00005F76   665 0001:00005F7D   673 0001:00005F80
   674 0001:00005FA2   676 0001:00005FAA   677 0001:00005FBF   680 0001:00005FC4
   682 0001:00005FCA   685 0001:00005FDE   686 0001:00005FF3   689 0001:0000601F
   697 0001:00006024   698 0001:00006064   699 0001:0000606F   701 0001:00006084
   702 0001:000060A0   703 0001:000060AB   704 0001:000060B8   706 0001:000060C9
   708 0001:000060D5   709 0001:000060E5   711 0001:000060E8   713 0001:000060F8
   714 0001:00006108   715 0001:0000610F   716 0001:0000611F   717 0001:00006168
   719 0001:0000616E   720 0001:0000617C   721 0001:000061A3   723 0001:000061C4
   728 0001:000061D5   729 0001:000061E3   731 0001:000061E5   732 0001:000061F5
   733 0001:00006232   738 0001:00006250   739 0001:00006274   740 0001:00006279
   741 0001:00006283   742 0001:0000628D   743 0001:0000628F   744 0001:000062B6
   745 0001:000062E0   751 0001:000062E8   752 0001:000062F8   753 0001:00006303
   754 0001:0000630D   755 0001:00006317   756 0001:0000631F   758 0001:00006339
   759 0001:00006341   760 0001:0000634A   761 0001:00006354   762 0001:0000635E
   763 0001:00006368   764 0001:0000636B   765 0001:00006377   767 0001:00006379
   768 0001:00006385   770 0001:00006389   771 0001:0000638E   772 0001:0000639A
   773 0001:000063A2   774 0001:000063A4   775 0001:000063B1   776 0001:000063B4
   780 0001:000063B9   781 0001:000063C9   782 0001:000063D5   784 0001:000063D7
   785 0001:000063DB   786 0001:000063F1   792 0001:000063FC   793 0001:00006439
   794 0001:0000643E   796 0001:0000644A   795 0001:0000644B   797 0001:00006469
   800 0001:0000646D   802 0001:0000647F   803 0001:0000649C   804 0001:000064A6
   806 0001:000064A9   798 0001:000064AA   808 0001:000064B6   809 0001:000064D4
   810 0001:00006513   824 0001:0000651C   825 0001:0000654D   826 0001:00006554
   827 0001:00006574   829 0001:00006592   832 0001:000065B6   833 0001:000065C0
   835 0001:000065DC   838 0001:000065F5   839 0001:000065FC   841 0001:00006627
   846 0001:00006630   847 0001:00006653   848 0001:00006655   849 0001:00006675
   851 0001:00006693   852 0001:00006695   854 0001:000066BD   894 0001:000066C4
   895 0001:000066C7   896 0001:000066CD   897 0001:000066D7   898 0001:000066FB
   929 0001:00006704   930 0001:00006709   936 0001:0000670C   937 0001:00006735
   938 0001:00006752   940 0001:00006767   941 0001:0000676F   942 0001:000067D0
   948 0001:000067F0   949 0001:0000680E   950 0001:00006810   952 0001:0000681A
   955 0001:0000683B   957 0001:00006840   958 0001:00006842   959 0001:00006848
   961 0001:0000687F   966 0001:00006888   967 0001:0000688C   969 0001:0000688E
   972 0001:000068AD   974 0001:000068B2   975 0001:000068B4   977 0001:000068BC
   986 0001:000068C0   987 0001:000068C3   988 0001:000068D0   989 0001:000068DF
   992 0001:000068E4   993 0001:000068E7   994 0001:000068F7   995 0001:000068FC
   997 0001:00006900   998 0001:0000692B   999 0001:0000692D  1001 0001:0000693E
  1002 0001:00006940  1003 0001:00006958  1005 0001:00006974  1007 0001:0000697A
  1008 0001:000069B4  1011 0001:000069CC  1012 0001:000069EE  1013 0001:000069FC
  1014 0001:00006A06  1015 0001:00006A2C  1020 0001:00006A54  1021 0001:00006A58
  1022 0001:00006A61  1023 0001:00006A6B  1029 0001:00006A70  1030 0001:00006A7A
  1031 0001:00006A82  1033 0001:00006A91  1034 0001:00006AA3  1035 0001:00006AB0
  1036 0001:00006AC4  1037 0001:00006AD8  1038 0001:00006AE7  1039 0001:00006AF6
  1040 0001:00006B05  1041 0001:00006B14  1042 0001:00006B1E  1031 0001:00006B1F
  1043 0001:00006B26  1048 0001:00006B2C  1049 0001:00006B30  1050 0001:00006B45
  1051 0001:00006B4C  1052 0001:00006B54  1055 0001:00006B58  1056 0001:00006B6A
  1057 0001:00006B6D  1058 0001:00006B8D  1061 0001:00006B90  1062 0001:00006B96
  1063 0001:00006BAA  1064 0001:00006BB3  1065 0001:00006BBB  1068 0001:00006BC0
  1069 0001:00006BCB  1070 0001:00006BD2  1071 0001:00006BE9  1074 0001:00006BEC
  1075 0001:00006BF2  1076 0001:00006BFB  1087 0001:00006C00  1091 0001:00006C2F
  1093 0001:00006C38  1094 0001:00006C43  1095 0001:00006C49  1097 0001:00006C5C
  1098 0001:00006C61  1099 0001:00006C72  1100 0001:00006C79  1101 0001:00006CB2
  1104 0001:00006CB8  1105 0001:00006CC3  1106 0001:00006CCA  1107 0001:00006CD2
  1108 0001:00006CE9  1113 0001:00006CEC  1114 0001:00006CF8  1116 0001:00006D00
  1118 0001:00006D09  1119 0001:00006D11  1120 0001:00006D1F  1121 0001:00006D2D
  1122 0001:00006D2F  1121 0001:00006D48  1123 0001:00006D4D  1124 0001:00006D5B
  1125 0001:00006D69  1126 0001:00006D77  1127 0001:00006D82  1128 0001:00006D8D
  1129 0001:00006D98  1130 0001:00006DA3  1131 0001:00006DAF  1132 0001:00006DBA
  1133 0001:00006DC5  1134 0001:00006DD3  1135 0001:00006DE1  1136 0001:00006DEF
  1137 0001:00006DFA  1138 0001:00006E08  1139 0001:00006E16  1140 0001:00006E24
  1141 0001:00006E32  1142 0001:00006E40  1143 0001:00006E4E  1144 0001:00006E5C
  1145 0001:00006E6A  1147 0001:00006E75  1148 0001:00006E83  1149 0001:00006E91
  1150 0001:00006E9F  1151 0001:00006EAD  1152 0001:00006EBB  1153 0001:00006ECA
  1155 0001:00006ED8  1156 0001:00006EE7  1157 0001:00006EF5  1158 0001:00006F03
  1160 0001:00006F11  1161 0001:00006F1F  1162 0001:00006F2E  1163 0001:00006F3C
  1164 0001:00006F4A  1166 0001:00006F58  1167 0001:00006F63  1168 0001:00006F6E
  1169 0001:00006F79  1170 0001:00006F85  1171 0001:00006F90  1172 0001:00006F9B
  1173 0001:00006FA6  1174 0001:00006FB1  1175 0001:00006FBC  1176 0001:00006FC7
  1177 0001:00006FD2  1178 0001:00006FDD  1179 0001:00006FE8  1180 0001:00006FF3
  1181 0001:00006FFE  1182 0001:00007009  1185 0001:00007025  1186 0001:0000702D
  1191 0001:0000703D  1193 0001:00007053  1201 0001:00007098  1202 0001:000070A1
  1203 0001:000070B0  1208 0001:000070B4  1209 0001:000070BB  1210 0001:000070D1
  1211 0001:000070DF  1213 0001:000070F6  1215 0001:00007106  1225 0001:0000710C
  1227 0001:00007130  1228 0001:00007157  1231 0001:00007175  1232 0001:0000718A
  1231 0001:000071A9  1234 0001:000071AC  1235 0001:000071B7  1236 0001:000071C6
  1237 0001:000071CC  1238 0001:000071FD  1240 0001:00007210  1243 0001:0000721B
  1244 0001:0000722D  1245 0001:0000723F  1246 0001:00007251  1247 0001:00007263
  1248 0001:00007275  1249 0001:00007287  1250 0001:00007296  1251 0001:000072A5
  1252 0001:000072AF  1253 0001:000072B9  1254 0001:000072C8  1255 0001:000072D2
  1256 0001:000072DC  1257 0001:000072EB  1258 0001:000072FD  1259 0001:0000730F
  1260 0001:0000731C  1261 0001:00007329  1262 0001:0000733B  1263 0001:0000734A
  1265 0001:00007357  1266 0001:00007369  1267 0001:00007376  1268 0001:00007383
  1269 0001:00007390  1270 0001:000073A2  1271 0001:000073AF  1273 0001:000073C1
  1274 0001:000073D3  1275 0001:000073E5  1276 0001:000073F2  1278 0001:000073FF
  1279 0001:00007411  1280 0001:00007423  1281 0001:00007435  1282 0001:00007447
  1283 0001:00007459  1284 0001:0000746B  1285 0001:0000747A  1286 0001:00007489
  1287 0001:00007493  1288 0001:0000749D  1289 0001:000074A7  1290 0001:000074B6
  1291 0001:000074C0  1292 0001:000074CA  1293 0001:000074D4  1294 0001:000074DE
  1295 0001:000074E8  1296 0001:000074F2  1298 0001:000074FC  1299 0001:00007505
  1300 0001:00007513  1302 0001:00007526  1303 0001:0000753E  1304 0001:00007552
  1305 0001:00007566  1306 0001:0000757F  1307 0001:00007598  1308 0001:000075B1
  1309 0001:000075CA  1300 0001:000075CB  1310 0001:000075D5  1311 0001:000075E2
  1312 0001:000075E7  1311 0001:000075FC  1313 0001:00007603  1315 0001:00007610
  1372 0001:00007618  1373 0001:0000761F  1374 0001:00007632  1375 0001:00007640
  1377 0001:00007657  1379 0001:00007667  1396 0001:0000766C  1397 0001:00007692
  1398 0001:00007699  1399 0001:0000769E  1401 0001:000076A0  1402 0001:000076C4
  1403 0001:000076C6  1404 0001:000076D3  1399 0001:000076D4  1405 0001:000076F6
  1410 0001:00007700  1411 0001:00007722  1412 0001:00007731  1413 0001:00007736
  1415 0001:0000773B  1416 0001:00007741  1417 0001:00007762  1418 0001:00007764
  1419 0001:00007771  1413 0001:00007772  1420 0001:00007794  1425 0001:0000779C
  1426 0001:000077A7  1427 0001:000077B6  1428 0001:000077C0  1429 0001:000077C6
  1432 0001:000077D9  1433 0001:000077ED  1432 0001:0000780A  1434 0001:0000780D
  1436 0001:00007814  1437 0001:0000783A  1439 0001:00007842  1440 0001:0000784A
  1443 0001:00007858  1444 0001:0000786D  1445 0001:00007882  1447 0001:00007897
  1449 0001:000078A2  1450 0001:000078B1  1451 0001:000078C4  1454 0001:000078D4
  1457 0001:000078E9  1459 0001:00007907  1460 0001:00007916  1461 0001:00007937
  1462 0001:00007952  1463 0001:00007961  1464 0001:00007982  1465 0001:0000799D
  1466 0001:000079AC  1467 0001:000079CD  1471 0001:000079E8  1473 0001:000079F3
  1474 0001:00007A08  1475 0001:00007A1D  1477 0001:00007A28  1482 0001:00007A3E
  1484 0001:00007A54  1485 0001:00007A63  1486 0001:00007A84  1490 0001:00007A9F
  1492 0001:00007AAE  1493 0001:00007AC0  1494 0001:00007AD2  1495 0001:00007ADD
  1496 0001:00007AF1  1497 0001:00007AFC  1499 0001:00007B06  1500 0001:00007B29
  1504 0001:00007B41  1507 0001:00007B5E  1509 0001:00007B69  1510 0001:00007B81
  1511 0001:00007B99  1514 0001:00007BAB  1516 0001:00007BB6  1517 0001:00007BC5
  1520 0001:00007BD5  1521 0001:00007BEA  1522 0001:00007BFF  1523 0001:00007C19
  1524 0001:00007C33  1525 0001:00007C48  1527 0001:00007C5F  1528 0001:00007C68
  1530 0001:00007C74  1533 0001:00007C7E  1534 0001:00007C95  1536 0001:00007CA4
  1537 0001:00007CB6  1538 0001:00007CC4  1539 0001:00007CD6  1540 0001:00007CE8
  1541 0001:00007CFA  1542 0001:00007D0C  1543 0001:00007D1E  1544 0001:00007D30
  1547 0001:00007D51  1549 0001:00007D60  1550 0001:00007D72  1551 0001:00007D80
  1552 0001:00007D92  1553 0001:00007DA4  1554 0001:00007DB6  1555 0001:00007DC8
  1556 0001:00007DDA  1557 0001:00007DEC  1558 0001:00007DFE  1560 0001:00007E1C
  1562 0001:00007E2E  1564 0001:00007E48  1566 0001:00007E62  1568 0001:00007E71
  1569 0001:00007E86  1570 0001:00007EA0  1571 0001:00007EBA  1572 0001:00007ED4
  1573 0001:00007EE9  1574 0001:00007F03  1575 0001:00007F18  1576 0001:00007F23
  1578 0001:00007F40  1581 0001:00007F62  1582 0001:00007F73  1584 0001:00007F88
  1585 0001:00007F9D  1586 0001:00007FB7  1588 0001:00007FD1  1589 0001:00007FE6
  1590 0001:00007FF1  1592 0001:00008009  1594 0001:00008014  1595 0001:00008029
  1599 0001:00008040  1600 0001:00008051  1602 0001:00008066  1603 0001:0000807B
  1604 0001:00008090  1605 0001:000080A5  1607 0001:000080B4  1608 0001:000080C6
  1609 0001:000080D8  1610 0001:000080F0  1611 0001:00008108  1612 0001:00008120
  1613 0001:00008132  1614 0001:0000814A  1615 0001:00008162  1616 0001:0000817A
  1617 0001:00008192  1618 0001:000081AA  1619 0001:000081C2  1623 0001:000081DA
  1624 0001:000081E5  1625 0001:000081F4  1627 0001:00008204  1628 0001:00008216
  1629 0001:00008231  1631 0001:00008234  1632 0001:0000823E  1633 0001:00008249
  1634 0001:00008253  1635 0001:0000825E  1637 0001:00008269  1638 0001:00008278
  1639 0001:00008287  1640 0001:00008296  1644 0001:000082A7  1646 0001:000082AD
  1647 0001:000082B1  1648 0001:000082B5  1649 0001:000082B9  1653 0001:000082BF
  1654 0001:000082C3  1655 0001:000082C7  1656 0001:000082CB  1659 0001:000082CF
  1625 0001:000082DC  1662 0001:000082E5  1663 0001:00008305  1666 0001:00008307
  1667 0001:0000831B  1669 0001:00008325  1697 0001:00008411  1698 0001:00008434
  1663 0001:00008435  1699 0001:0000843E  1700 0001:00008469  1701 0001:0000846F
  1704 0001:00008489  1705 0001:00008491  1707 0001:000084E8  1715 0001:00008594
  1720 0001:00008598  1724 0001:0000859C  1725 0001:0000859F  1729 0001:000085A0
  1730 0001:000085A3  1747 0001:000085A4  1748 0001:000085BA  1753 0001:000085BC
  1754 0001:000085C5  1755 0001:000085CD  1756 0001:000085DB  1757 0001:000085E3
  1756 0001:000085F9  1758 0001:000085FE  1759 0001:00008610  1760 0001:00008617
  1761 0001:00008621  1762 0001:00008631  1763 0001:0000863C  1764 0001:00008645
  1765 0001:00008650  1766 0001:0000865B  1767 0001:00008665  1768 0001:0000866F
  1769 0001:00008679  1770 0001:00008683  1771 0001:0000868D  1772 0001:00008694
  1773 0001:000086A3  1774 0001:000086B5  1775 0001:000086C2  1776 0001:000086CF
  1777 0001:000086DC  1778 0001:000086E9  1779 0001:000086F6  1780 0001:00008703
  1782 0001:0000870D  1783 0001:00008717  1784 0001:00008724  1785 0001:00008731
  1786 0001:0000873E  1787 0001:00008749  1788 0001:00008756  1790 0001:00008767
  1793 0001:00008778  1794 0001:00008783  1795 0001:00008790  1802 0001:000087A2
  1804 0001:000087B1  1806 0001:000087C2  1808 0001:000087D1  1809 0001:000087DB
  1810 0001:000087E8  1812 0001:000087F5  1813 0001:00008800  1814 0001:0000880B
  1815 0001:00008816  1816 0001:0000881F  1817 0001:0000882A  1818 0001:00008835
  1819 0001:00008840  1820 0001:0000884B  1821 0001:00008856  1822 0001:00008861
  1823 0001:0000886C  1824 0001:00008877  1825 0001:00008882  1826 0001:0000888D
  1827 0001:00008899  1828 0001:000088A0  1830 0001:000088AB  1832 0001:000088C2
  1833 0001:000088CA  1835 0001:000088DA  1838 0001:00008A5C  1839 0001:00008A62
  1840 0001:00008A6C  1841 0001:00008A73  1844 0001:00008A78  1845 0001:00008A7E
  1846 0001:00008A88  1847 0001:00008A8F  1850 0001:00008A94  1851 0001:00008A9A
  1852 0001:00008AA4  1853 0001:00008AAB  1856 0001:00008AB0  1857 0001:00008AB6
  1858 0001:00008AC0  1859 0001:00008AC7  1862 0001:00008ACC  1863 0001:00008AD2
  1864 0001:00008ADC  1865 0001:00008AE3  1868 0001:00008AE8  1869 0001:00008AEE
  1870 0001:00008AF8  1871 0001:00008AFF  1874 0001:00008B04  1875 0001:00008B27
  1876 0001:00008B37  1877 0001:00008B5B  1881 0001:00008B60  1882 0001:00008B66
  1883 0001:00008B6B  1887 0001:00008B6C  1888 0001:00008B6F  1889 0001:00008B74
  1893 0001:00008B78  1894 0001:00008B7C  1896 0001:00008B88  1897 0001:00008B8E
  1898 0001:00008B93  1901 0001:00008B94  1902 0001:00008B9A  1903 0001:00008BA4
  1904 0001:00008BAB  1908 0001:00008BB0  1909 0001:00008BB3  1910 0001:00008BB8
  1914 0001:00008BBC  1915 0001:00008BC2  1916 0001:00008BC7  1920 0001:00008BC8
  1921 0001:00008BCE  1922 0001:00008BD3  1926 0001:00008BD4  1927 0001:00008BDA
  1928 0001:00008BDF  1931 0001:00008BE0  1932 0001:00008BE6  1933 0001:00008BF3
  1934 0001:00008BFA  1937 0001:00008C00  1938 0001:00008C06  1939 0001:00008C13
  1940 0001:00008C1A  1944 0001:00008C20  1945 0001:00008C26  1946 0001:00008C2B
  1949 0001:00008C2C  1950 0001:00008C32  1951 0001:00008C3F  1952 0001:00008C46
  1956 0001:00008C4C  1957 0001:00008C52  1958 0001:00008C57  1968 0001:00008C58
  1969 0001:00008C5E  1970 0001:00008C63  1974 0001:00008C64  1975 0001:00008C67
  1976 0001:00008C6C  1979 0001:00008C70  1980 0001:00008C74  1981 0001:00008C7D
  1982 0001:00008C82  1985 0001:00008C84  1986 0001:00008C8A  1987 0001:00008C97
  1988 0001:00008C9E  1991 0001:00008CA4  1992 0001:00008CAA  1993 0001:00008CB4
  1994 0001:00008CBB  1997 0001:00008CC0  1998 0001:00008CC6  1999 0001:00008CD0
  2000 0001:00008CD7  2003 0001:00008CDC  2004 0001:00008CE2  2005 0001:00008CEC
  2006 0001:00008CF3  2009 0001:00008CF8  2010 0001:00008CFE  2011 0001:00008D08
  2012 0001:00008D0F  2016 0001:00008D14  2017 0001:00008D18  2018 0001:00008D1D
  2021 0001:00008D20  2022 0001:00008D26  2023 0001:00008D30  2024 0001:00008D37
  2027 0001:00008D3C  2028 0001:00008D42  2029 0001:00008D4C  2030 0001:00008D53
  2034 0001:00008D58  2035 0001:00008D5E  2036 0001:00008D63  2040 0001:00008D64
  2041 0001:00008D71  2042 0001:00008D76  2045 0001:00008D78  2046 0001:00008D7E
  2047 0001:00008D88  2048 0001:00008D8F  2051 0001:00008D94  2052 0001:00008D9A
  2053 0001:00008DA4  2054 0001:00008DAB  2057 0001:00008DB0  2058 0001:00008DB6
  2059 0001:00008DC0  2060 0001:00008DC7  2064 0001:00008DCC  2065 0001:00008DD0
  2066 0001:00008DD5  2069 0001:00008DD8  2070 0001:00008DDE  2071 0001:00008DE8
  2072 0001:00008DEF  2077 0001:00008DF4  2078 0001:00008DF7  2079 0001:00008DFC
  2082 0001:00008E00  2083 0001:00008E06  2084 0001:00008E13  2085 0001:00008E1A
  2089 0001:00008E20  2090 0001:00008E26  2091 0001:00008E2B  2094 0001:00008E2C
  2095 0001:00008E32  2096 0001:00008E3F  2097 0001:00008E46  2100 0001:00008E4C
  2101 0001:00008E52  2102 0001:00008E5F  2103 0001:00008E66  2107 0001:00008E6C
  2108 0001:00008E72  2109 0001:00008E77  2112 0001:00008E78  2113 0001:00008E7E
  2114 0001:00008E8B  2115 0001:00008E92  2118 0001:00008E98  2119 0001:00008E9E
  2120 0001:00008EA8  2121 0001:00008EAF  2124 0001:00008EB4  2125 0001:00008EB9
  2126 0001:00008EC4  2127 0001:00008EC9  2130 0001:00008ECC  2131 0001:00008ED0
  2132 0001:00008ED6  2133 0001:00008EDB  2136 0001:00008EE0  2137 0001:00008EE6
  2138 0001:00008EF3  2139 0001:00008EFA  2142 0001:00008F00  2143 0001:00008F05
  2144 0001:00008F10  2145 0001:00008F15  2149 0001:00008F18  2150 0001:00008F1B
  2151 0001:00008F20  2156 0001:00008F24  2157 0001:00008F2A  2158 0001:00008F2F
  2162 0001:00008F30  2163 0001:00008F36  2164 0001:00008F3B  2168 0001:00008F3C
  2169 0001:00008F42  2170 0001:00008F47  2174 0001:00008F48  2175 0001:00008F4E
  2176 0001:00008F53  2179 0001:00008F54  2180 0001:00008F5A  2181 0001:00008F67
  2182 0001:00008F6E  2185 0001:00008F74  2186 0001:00008F7A  2187 0001:00008F87
  2188 0001:00008F8E  2191 0001:00008F94  2192 0001:00008F99  2193 0001:00008FA4
  2194 0001:00008FA9  2197 0001:00008FAC  2198 0001:00008FB0  2199 0001:00008FB9
  2200 0001:00008FBE  2207 0001:00008FC0  2208 0001:00008FE7  2211 0001:00008FFB
  2212 0001:00009005  2214 0001:0000905D  2218 0001:00009070  2219 0001:00009089
  2221 0001:0000908C  2222 0001:000090BA  2225 0001:000090F1  2226 0001:000090FA
  2229 0001:00009109  2230 0001:00009112  2232 0001:00009133  2234 0001:00009148
  2236 0001:0000917F  2246 0001:000091AC  2247 0001:000091BD  2248 0001:000091C3
  2249 0001:000091D0  2250 0001:000091E2  2251 0001:000091F5  2250 0001:0000921B
  2252 0001:0000921E  2254 0001:00009228  2255 0001:00009254  2256 0001:00009265
  2257 0001:00009281  2259 0001:0000928A  2262 0001:000092E4  2267 0001:00009308
  2268 0001:00009338  2269 0001:00009346  2271 0001:00009367  2273 0001:00009369
  2275 0001:0000937F  2277 0001:00009388  2278 0001:000093CF  2282 0001:000093D6
  2283 0001:000093FC  2284 0001:00009409  2288 0001:00009468  2298 0001:000094DC
  2310 0001:000094E6  2314 0001:000094E8  2322 0001:000094EC  2324 0001:00009529
  2318 0001:00009540  2319 0001:00009549  2321 0001:00009558

Line numbers for EDebug(EDebug.pas) segment .text

   891 0001:0000A124   894 0001:0000A128   895 0001:0000A12A   899 0001:0000A12C
   902 0001:0000A130   903 0001:0000A132   910 0001:0000A134   911 0001:0000A143
   912 0001:0000A14A   914 0001:0000A150   915 0001:0000A152   916 0001:0000A155
   917 0001:0000A159   919 0001:0000A15D   920 0001:0000A162   921 0001:0000A170
   924 0001:0000A179   925 0001:0000A17C   927 0001:0000A180   928 0001:0000A184
   917 0001:0000A186   932 0001:0000A18A   934 0001:0000A195   936 0001:0000A1A5
   942 0001:0000A1B0   943 0001:0000A1BC   944 0001:0000A1C0   947 0001:0000A1E2
   948 0001:0000A1E8   949 0001:0000A1F6   950 0001:0000A208   951 0001:0000A216
   952 0001:0000A220   954 0001:0000A231   957 0001:0000A24E   959 0001:0000A262
   964 0001:0000A268   965 0001:0000A282   967 0001:0000A28D   968 0001:0000A29E
   970 0001:0000A2C0   973 0001:0000A2C8   974 0001:0000A2D3   975 0001:0000A2DB
   976 0001:0000A2E0   977 0001:0000A2F7  1021 0001:0000A2FC  1022 0001:0000A2FF
  1024 0001:0000A303  1025 0001:0000A30A  1027 0001:0000A30C  1029 0001:0000A311
  1030 0001:0000A312  1032 0001:0000A316  1031 0001:0000A317  1036 0001:0000A325
  1038 0001:0000A329  1037 0001:0000A32A  1040 0001:0000A33B  1041 0001:0000A346
  1061 0001:0000A474  1063 0001:0000A47F  1062 0001:0000A481  1064 0001:0000A492
  1067 0001:0000A494  1069 0001:0000A49F  1068 0001:0000A4A1  1070 0001:0000A4A8
  1071 0001:0000A4B2  1074 0001:0000A4B4  1075 0001:0000A4B7  1076 0001:0000A4C6
  1079 0001:0000A4C8  1080 0001:0000A4CB  1081 0001:0000A4DA  1086 0001:0000A4DC
  1087 0001:0000A4E6  1089 0001:0000A4EA  1088 0001:0000A4EC  1090 0001:0000A4F9
  1091 0001:0000A502  1095 0001:0000A508  1096 0001:0000A512  1099 0001:0000A516
  1100 0001:0000A526  1097 0001:0000A528  1102 0001:0000A536  1107 0001:0000A53C
  1108 0001:0000A546  1110 0001:0000A548  1111 0001:0000A54C  1114 0001:0000A576
  1115 0001:0000A579  1119 0001:0000A585  1120 0001:0000A588  1124 0001:0000A597
  1125 0001:0000A59A  1129 0001:0000A5A9  1130 0001:0000A5AB  1135 0001:0000A5AD
  1136 0001:0000A5AF  1137 0001:0000A5B3  1140 0001:0000A5B8  1141 0001:0000A5BE
  1142 0001:0000A5CB  1144 0001:0000A5D6  1145 0001:0000A5DC  1148 0001:0000A5EC
  1149 0001:0000A5F1  1152 0001:0000A5F4  1153 0001:0000A5FE  1154 0001:0000A608
  1156 0001:0000A60C  1155 0001:0000A60E  1157 0001:0000A61F  1160 0001:0000A624
  1162 0001:0000A62F  1161 0001:0000A631  1163 0001:0000A63F  1164 0001:0000A642
  1170 0001:0000A644  1171 0001:0000A663  1174 0001:0000A667  1175 0001:0000A67F
  1176 0001:0000A681  1177 0001:0000A683  1178 0001:0000A685  1180 0001:0000A68A
  1181 0001:0000A695  1183 0001:0000A699  1184 0001:0000A69B  1186 0001:0000A69D
  1187 0001:0000A69F  1178 0001:0000A6A0  1189 0001:0000A6A5  1190 0001:0000A6AA
  1192 0001:0000A6AE  1172 0001:0000A6B8  1194 0001:0000A6C6  1195 0001:0000A6D4
  1196 0001:0000A702  1203 0001:0000A70C  1204 0001:0000A72A  1206 0001:0000A738
  1207 0001:0000A73C  1209 0001:0000A73E  1210 0001:0000A748  1211 0001:0000A751
  1214 0001:0000A759  1215 0001:0000A75A  1212 0001:0000A75B  1217 0001:0000A777
  1218 0001:0000A78E  1219 0001:0000A79C  1220 0001:0000A7A2  1221 0001:0000A7A8
  1222 0001:0000A7D2  1224 0001:0000A7DC  1225 0001:0000A7E7  1227 0001:0000A7F1
  1229 0001:0000A7F5  1230 0001:0000A7FB  1232 0001:0000A800  1233 0001:0000A809
  1234 0001:0000A817  1237 0001:0000A82E  1238 0001:0000A846  1239 0001:0000A84D
  1240 0001:0000A856  1241 0001:0000A85F  1242 0001:0000A869  1243 0001:0000A870
  1235 0001:0000A880  1245 0001:0000A88B  1248 0001:0000A8A2  1249 0001:0000A8BA
  1250 0001:0000A8C1  1251 0001:0000A8CA  1252 0001:0000A8D3  1253 0001:0000A8DC
  1254 0001:0000A8E5  1255 0001:0000A8EF  1256 0001:0000A8F6  1246 0001:0000A907
  1258 0001:0000A912  1261 0001:0000A929  1262 0001:0000A941  1263 0001:0000A94A
  1264 0001:0000A951  1259 0001:0000A95D  1266 0001:0000A968  1269 0001:0000A983
  1270 0001:0000A99B  1271 0001:0000A9A4  1272 0001:0000A9AB  1267 0001:0000A9B7
  1276 0001:0000A9C7  1277 0001:0000A9CD  1279 0001:0000A9D5  1278 0001:0000A9D8
  1280 0001:0000A9E0  1281 0001:0000A9E7  1283 0001:0000A9F4  1284 0001:0000A9FB
  1285 0001:0000AA04  1286 0001:0000AA0B  1287 0001:0000AA23  1288 0001:0000AA2A
  1290 0001:0000AA36  1292 0001:0000AA44  1293 0001:0000AA4A  1295 0001:0000AA4E
  1297 0001:0000AA5C  1274 0001:0000AA67  1300 0001:0000AA7B  1347 0001:0000AAA0
  1348 0001:0000AAB2  1349 0001:0000AABB  1350 0001:0000AAC0  1351 0001:0000AAC5
  1352 0001:0000AACA  1353 0001:0000AACF  1354 0001:0000AAD4  1355 0001:0000AAD9
  1356 0001:0000AADE  1357 0001:0000AAE3  1358 0001:0000AB01  1361 0001:0000AB04
  1362 0001:0000AB0F  1363 0001:0000AB1B  1364 0001:0000AB27  1365 0001:0000AB33
  1366 0001:0000AB3F  1367 0001:0000AB56  1371 0001:0000AB5C  1372 0001:0000AB5F
  1376 0001:0000AB64  1377 0001:0000AB68  1383 0001:0000AB6C  1384 0001:0000AB79
  1385 0001:0000AB85  1386 0001:0000AB8B  1387 0001:0000AB8F  1389 0001:0000ABAB
  1391 0001:0000ABB8  1392 0001:0000ABC3  1394 0001:0000ABD2  1399 0001:0000ABD8
  1401 0001:0000ABE1  1404 0001:0000AC11  1405 0001:0000AC1E  1407 0001:0000AC37
  1408 0001:0000AC42  1410 0001:0000AC4D  1411 0001:0000AC59  1412 0001:0000AC63
  1413 0001:0000AC66  1415 0001:0000AC6C  1416 0001:0000AC6F  1417 0001:0000AC72
  1418 0001:0000AC80  1419 0001:0000AC89  1420 0001:0000AC90  1424 0001:0000AC97
  1425 0001:0000AC9A  1429 0001:0000ACA0  1430 0001:0000ACA3  1435 0001:0000ACA4
  1436 0001:0000ACB0  1437 0001:0000ACB8  1438 0001:0000ACC1  1440 0001:0000ACD5
  1441 0001:0000ACE6  1442 0001:0000ACE8  1437 0001:0000ACE9  1443 0001:0000ACEE
  1448 0001:0000ACF4  1449 0001:0000ACF7  1450 0001:0000ACFA  1451 0001:0000AD03
  1453 0001:0000AD17  1454 0001:0000AD20  1455 0001:0000AD22  1450 0001:0000AD23
  1456 0001:0000AD2A  1460 0001:0000AD30  1461 0001:0000AD34  1467 0001:0000AD38
  1468 0001:0000AD49  1469 0001:0000AD55  1470 0001:0000AD5D  1471 0001:0000AD64
  1473 0001:0000AD81  1475 0001:0000AD8E  1476 0001:0000AD9F  1478 0001:0000ADAD
  1483 0001:0000ADB8  1486 0001:0000ADBC  1487 0001:0000ADC5  1489 0001:0000ADCB
  1491 0001:0000ADE4  1492 0001:0000ADEF  1494 0001:0000ADFA  1495 0001:0000AE06
  1496 0001:0000AE10  1498 0001:0000AE13  1501 0001:0000AE18  1502 0001:0000AE1B
  1503 0001:0000AE21  1504 0001:0000AE26  1505 0001:0000AE2B  1506 0001:0000AE30
  1507 0001:0000AE37  1508 0001:0000AE3D  1509 0001:0000AE4A  1510 0001:0000AE50
  1511 0001:0000AE5D  1517 0001:0000AE60  1518 0001:0000AE6E  1520 0001:0000AE74
  1521 0001:0000AE77  1522 0001:0000AE7A  1523 0001:0000AE8B  1524 0001:0000AE97
  1525 0001:0000AEA4  1526 0001:0000AEAE  1528 0001:0000AEBF  1534 0001:0000AEC8
  1535 0001:0000AED4  1536 0001:0000AEE0  1537 0001:0000AEE7  1539 0001:0000AF05
  1540 0001:0000AF12  1541 0001:0000AF22  1562 0001:0000AF28  1563 0001:0000AF2F
  1564 0001:0000AF3F  1565 0001:0000AF41  1567 0001:0000AF53  1568 0001:0000AF57
  1569 0001:0000AF5B  1570 0001:0000AF5D  1571 0001:0000AF5F  1572 0001:0000AF60
  1565 0001:0000AF61  1573 0001:0000AF64  1581 0001:0000AF68  1582 0001:0000AF8E
  1583 0001:0000AF96  1585 0001:0000AF98  1588 0001:0000AFA4  1589 0001:0000AFA5
  1590 0001:0000AFC0  1594 0001:0000AFC5  1595 0001:0000AFC6  1596 0001:0000AFCE
  1599 0001:0000AFCF  1600 0001:0000AFD1  1602 0001:0000AFD3  1604 0001:0000AFE7
  1607 0001:0000AFED  1608 0001:0000AFF6  1609 0001:0000AFF7  1613 0001:0000B003
  1614 0001:0000B00C  1615 0001:0000B00D  1619 0001:0000B019  1620 0001:0000B022
  1623 0001:0000B023  1627 0001:0000B049  1629 0001:0000B04D  1631 0001:0000B051
  1633 0001:0000B055  1635 0001:0000B057  1636 0001:0000B05E  1637 0001:0000B05F
  1638 0001:0000B060  1639 0001:0000B06C  1640 0001:0000B074  1641 0001:0000B0A7
  1646 0001:0000B0B0  1647 0001:0000B0C5  1648 0001:0000B0CA  1649 0001:0000B0CF
  1650 0001:0000B0D4  1651 0001:0000B0D9  1652 0001:0000B0DF  1653 0001:0000B0E2
  1654 0001:0000B100  1661 0001:0000B108  1662 0001:0000B111  1664 0001:0000B11B
  1665 0001:0000B11D  1666 0001:0000B123  1667 0001:0000B125  1668 0001:0000B127
  1671 0001:0000B13C  1672 0001:0000B144  1673 0001:0000B151  1674 0001:0000B155
  1676 0001:0000B159  1677 0001:0000B15E  1679 0001:0000B165  1680 0001:0000B173
  1681 0001:0000B178  1683 0001:0000B185  1684 0001:0000B18F  1685 0001:0000B193
  1669 0001:0000B194  1687 0001:0000B1A5  1688 0001:0000B1AA  1690 0001:0000B1B7
  1697 0001:0000B1C0  1698 0001:0000B1C8  1700 0001:0000B1D2  1701 0001:0000B1D8
  1702 0001:0000B1DE  1703 0001:0000B1E4  1704 0001:0000B1E6  1705 0001:0000B1E8
  1708 0001:0000B200  1709 0001:0000B208  1710 0001:0000B215  1711 0001:0000B21D
  1712 0001:0000B22A  1713 0001:0000B232  1715 0001:0000B236  1716 0001:0000B23B
  1718 0001:0000B242  1719 0001:0000B250  1720 0001:0000B255  1722 0001:0000B265
  1723 0001:0000B272  1724 0001:0000B27A  1725 0001:0000B282  1706 0001:0000B283
  1727 0001:0000B298  1728 0001:0000B29D  1730 0001:0000B2AD  1737 0001:0000B2B4
  1738 0001:0000B2BA  1739 0001:0000B2C0  1740 0001:0000B2C2  1743 0001:0000B30E
  1745 0001:0000B31A  1746 0001:0000B31F  1747 0001:0000B329  1749 0001:0000B32D
  1750 0001:0000B32F  1747 0001:0000B332  1752 0001:0000B336  1753 0001:0000B342
  1755 0001:0000B34B  1760 0001:0000B350  1761 0001:0000B354  1762 0001:0000B358
  1765 0001:0000B362  1766 0001:0000B371  1768 0001:0000B37A  1780 0001:0000B380
  1781 0001:0000B38E  1782 0001:0000B39B  1783 0001:0000B39D  1784 0001:0000B3A4
  1786 0001:0000B3AA  1787 0001:0000B3B1  1788 0001:0000B3C2  1790 0001:0000B3D0
  1792 0001:0000B3E1  1793 0001:0000B3EC  1795 0001:0000B3FA  1796 0001:0000B3FC
  1787 0001:0000B400  1800 0001:0000B409  1801 0001:0000B41D  1802 0001:0000B41F
  1805 0001:0000B427  1806 0001:0000B42B  1808 0001:0000B42F  1810 0001:0000B439
  1811 0001:0000B43B  1813 0001:0000B442  1817 0001:0000B444  1818 0001:0000B448
  1819 0001:0000B457  1820 0001:0000B45B  1803 0001:0000B464  1824 0001:0000B477
  1825 0001:0000B479  1829 0001:0000B484  1830 0001:0000B48C  1837 0001:0000B490
  1838 0001:0000B49E  1839 0001:0000B4B2  1840 0001:0000B4B4  1843 0001:0000B4B8
  1844 0001:0000B4BC  1848 0001:0000B4C0  1849 0001:0000B4CF  1841 0001:0000B4D3
  1852 0001:0000B4E6  1853 0001:0000B4F2  1860 0001:0000B4FC  1861 0001:0000B507
  1862 0001:0000B51B  1863 0001:0000B51D  1866 0001:0000B522  1867 0001:0000B525
  1871 0001:0000B529  1872 0001:0000B536  1864 0001:0000B538  1875 0001:0000B549
  1876 0001:0000B54B  1883 0001:0000B554  1884 0001:0000B577  1885 0001:0000B583
  1886 0001:0000B588  1887 0001:0000B58D  1888 0001:0000B594  1890 0001:0000B59A
  1891 0001:0000B5A1  1892 0001:0000B5B1  1894 0001:0000B5C1  1896 0001:0000B5D3
  1897 0001:0000B5DD  1898 0001:0000B5E7  1900 0001:0000B5F8  1901 0001:0000B5FD
  1891 0001:0000B600  1905 0001:0000B60B  1906 0001:0000B61E  1907 0001:0000B620
  1910 0001:0000B627  1911 0001:0000B62A  1913 0001:0000B62E  1915 0001:0000B636
  1916 0001:0000B63B  1917 0001:0000B640  1919 0001:0000B647  1923 0001:0000B649
  1924 0001:0000B64C  1925 0001:0000B659  1926 0001:0000B65F  1927 0001:0000B66C
  1928 0001:0000B672  1908 0001:0000B67B  1932 0001:0000B68C  1934 0001:0000B692
  1935 0001:0000B69F  1936 0001:0000B6A5  1939 0001:0000B6CE  1940 0001:0000B6F3
  1947 0001:0000B708  1948 0001:0000B70E  1949 0001:0000B710  1951 0001:0000B712
  1952 0001:0000B716  1953 0001:0000B718  1954 0001:0000B72B  1955 0001:0000B72E
  1956 0001:0000B732  1957 0001:0000B734  1958 0001:0000B73D  1965 0001:0000B744
  1966 0001:0000B754  1967 0001:0000B762  1968 0001:0000B776  1969 0001:0000B778
  1970 0001:0000B77A  1973 0001:0000B77E  1974 0001:0000B782  1976 0001:0000B787
  1977 0001:0000B78D  1978 0001:0000B78F  1982 0001:0000B791  1983 0001:0000B793
  1984 0001:0000B7A2  1971 0001:0000B7A6  1987 0001:0000B7B9  1988 0001:0000B7C6
  1993 0001:0000B7D0  1994 0001:0000B7E2  1995 0001:0000B7E5  1996 0001:0000B802
  2001 0001:0000B808  2002 0001:0000B814  2003 0001:0000B83B  2004 0001:0000B842
  2008 0001:0000B84C  2009 0001:0000B857  2014 0001:0000B858  2015 0001:0000B863
  2016 0001:0000B86B  2017 0001:0000B870  2018 0001:0000B887  2025 0001:0000B88C
  2026 0001:0000B8B6  2027 0001:0000B8C3  2029 0001:0000B8C9  2030 0001:0000B8E0
  2031 0001:0000B8E8  2033 0001:0000B8EE  2034 0001:0000B8F3  2035 0001:0000B90E
  2036 0001:0000B91D  2037 0001:0000B934  2038 0001:0000B93A  2039 0001:0000B93D
  2042 0001:0000B976  2047 0001:0000B980  2048 0001:0000B999  2049 0001:0000B9B3
  2050 0001:0000B9BD  2051 0001:0000B9C1  2052 0001:0000B9D5  2053 0001:0000B9FE
  2057 0001:0000BA14  2058 0001:0000BA1B  2063 0001:0000BA1C  2064 0001:0000BA27
  2065 0001:0000BA2F  2066 0001:0000BA34  2067 0001:0000BA3C  2068 0001:0000BA41
  2069 0001:0000BA58  2076 0001:0000BA5C  2077 0001:0000BA86  2078 0001:0000BA93
  2080 0001:0000BA99  2081 0001:0000BAB0  2082 0001:0000BAB8  2084 0001:0000BABE
  2085 0001:0000BAC3  2086 0001:0000BADE  2087 0001:0000BAED  2088 0001:0000BB04
  2089 0001:0000BB0A  2090 0001:0000BB0D  2093 0001:0000BB46  2101 0001:0000BB50
  2102 0001:0000BB54  2104 0001:0000BB57  2106 0001:0000BB62  2114 0001:0000BB64
  2115 0001:0000BB71  2116 0001:0000BB76  2118 0001:0000BB7A  2119 0001:0000BB83
  2120 0001:0000BB8C  2121 0001:0000BB8E  2122 0001:0000BB96  2124 0001:0000BBA8
  2125 0001:0000BBAB  2128 0001:0000BBAD  2121 0001:0000BBB0  2130 0001:0000BBB6
  2156 0001:0000BBC0  2157 0001:0000BBC4  2158 0001:0000BBC6  2160 0001:0000BBD2
  2163 0001:0000BBE1  2164 0001:0000BBE6  2166 0001:0000BBFD  2167 0001:0000BC01
  2174 0001:0000BC04  2175 0001:0000BC0A  2176 0001:0000BC11  2178 0001:0000BC1A
  2179 0001:0000BC25  2180 0001:0000BC37  2183 0001:0000BC3C  2184 0001:0000BC56
  2185 0001:0000BC6D  2186 0001:0000BC71  2189 0001:0000BC83  2190 0001:0000BC9D
  2191 0001:0000BCA7  2193 0001:0000BCAB  2194 0001:0000BCBC  2197 0001:0000BCC6
  2198 0001:0000BCCA  2200 0001:0000BCE0  2201 0001:0000BD09  2205 0001:0000BD34
  2206 0001:0000BD46  2211 0001:0000BD48  2212 0001:0000BD53  2213 0001:0000BD5B
  2214 0001:0000BD60  2215 0001:0000BD77  2222 0001:0000BD7C  2223 0001:0000BDA5
  2224 0001:0000BDB1  2225 0001:0000BDCC  2226 0001:0000BDD4  2229 0001:0000BDDA
  2230 0001:0000BDDF  2231 0001:0000BDFE  2232 0001:0000BE11  2233 0001:0000BE2C
  2234 0001:0000BE2F  2235 0001:0000BE32  2237 0001:0000BE6F  2240 0001:0000BE78
  2241 0001:0000BE80  2243 0001:0000BE87  2244 0001:0000BE9A  2245 0001:0000BEA8
  2247 0001:0000BEBA  2252 0001:0000BEC3  2253 0001:0000BEC8  2255 0001:0000BECC
  2259 0001:0000BED4  2261 0001:0000BEEF  2271 0001:0000BEF0  2272 0001:0000BF08
  2273 0001:0000BF11  2274 0001:0000BF34  2279 0001:0000BF3C  2280 0001:0000BF51
  2281 0001:0000BF69  2282 0001:0000BF72  2283 0001:0000BF78  2284 0001:0000BF7E
  2285 0001:0000BF9C  2288 0001:0000BFFC  2289 0001:0000C005  2290 0001:0000C022
  2291 0001:0000C03B  2296 0001:0000C09C  2297 0001:0000C0B4  2298 0001:0000C0BD
  2299 0001:0000C0C0  2300 0001:0000C0DD  2311 0001:0000C0E4  2312 0001:0000C102
  2313 0001:0000C11C  2314 0001:0000C126  2315 0001:0000C132  2316 0001:0000C144
  2318 0001:0000C15A  2319 0001:0000C167  2320 0001:0000C173  2322 0001:0000C19D
  2319 0001:0000C19E  2323 0001:0000C1A1  2316 0001:0000C1A4  2325 0001:0000C1A9
  2326 0001:0000C1BC  2327 0001:0000C1E3  2330 0001:0000C248  2331 0001:0000C253
  2332 0001:0000C25B  2333 0001:0000C260  2334 0001:0000C277  2337 0001:0000C27C
  2338 0001:0000C282  2339 0001:0000C28C  2343 0001:0000C290  2344 0001:0000C296
  2347 0001:0000C298  2348 0001:0000C2A1  2349 0001:0000C2BE  2350 0001:0000C2CD
  2355 0001:0000C330  2356 0001:0000C340  2357 0001:0000C351  2359 0001:0000C35C
  2361 0001:0000C364  2362 0001:0000C369  2363 0001:0000C378  2366 0001:0000C37A
  2368 0001:0000C398  2369 0001:0000C39D  2370 0001:0000C3AD  2372 0001:0000C3AF
  2356 0001:0000C3B0  2373 0001:0000C3B3  2374 0001:0000C3B8  2375 0001:0000C3C4
  2380 0001:0000C3CC  2381 0001:0000C3E1  2382 0001:0000C3F9  2383 0001:0000C402
  2384 0001:0000C421  2389 0001:0000C484  2390 0001:0000C49D  2391 0001:0000C4B5
  2392 0001:0000C4C0  2394 0001:0000C4C2  2395 0001:0000C4C8  2396 0001:0000C4CE
  2398 0001:0000C4ED  2403 0001:0000C550  2404 0001:0000C569  2405 0001:0000C581
  2406 0001:0000C58C  2408 0001:0000C58E  2409 0001:0000C594  2411 0001:0000C5B3
  2416 0001:0000C614  2417 0001:0000C62D  2418 0001:0000C645  2419 0001:0000C650
  2421 0001:0000C652  2422 0001:0000C658  2423 0001:0000C65E  2425 0001:0000C67D
  2430 0001:0000C6E0  2431 0001:0000C6F9  2432 0001:0000C711  2433 0001:0000C71C
  2435 0001:0000C71E  2436 0001:0000C724  2437 0001:0000C72A  2439 0001:0000C749
  2444 0001:0000C7AC  2445 0001:0000C7C5  2446 0001:0000C7DD  2447 0001:0000C7E8
  2449 0001:0000C7EA  2450 0001:0000C7F0  2452 0001:0000C80F  2457 0001:0000C870
  2458 0001:0000C889  2459 0001:0000C8A1  2460 0001:0000C8AC  2462 0001:0000C8AE
  2463 0001:0000C8B4  2464 0001:0000C8BA  2466 0001:0000C8D9  2471 0001:0000C93C
  2472 0001:0000C955  2473 0001:0000C96D  2474 0001:0000C978  2476 0001:0000C97A
  2477 0001:0000C980  2478 0001:0000C986  2480 0001:0000C9A7  2485 0001:0000CA08
  2486 0001:0000CA21  2487 0001:0000CA39  2488 0001:0000CA44  2490 0001:0000CA46
  2491 0001:0000CA4C  2492 0001:0000CA52  2494 0001:0000CA71  2499 0001:0000CAD4
  2500 0001:0000CAED  2501 0001:0000CB05  2502 0001:0000CB0E  2503 0001:0000CB1D
  2504 0001:0000CB2C  2505 0001:0000CB3B  2506 0001:0000CB4A  2507 0001:0000CB54
  2508 0001:0000CB59  2509 0001:0000CB5F  2510 0001:0000CB75  2511 0001:0000CB7B
  2512 0001:0000CB9B  2515 0001:0000CBFC  2516 0001:0000CC07  2517 0001:0000CC0F
  2518 0001:0000CC14  2519 0001:0000CC1C  2520 0001:0000CC21  2521 0001:0000CC29
  2522 0001:0000CC2E  2523 0001:0000CC36  2524 0001:0000CC3B  2525 0001:0000CC52
  2532 0001:0000CC58  2533 0001:0000CC60  2536 0001:0000CC77  2537 0001:0000CC98
  2538 0001:0000CCAC  2540 0001:0000CCBA  2541 0001:0000CCC4  2543 0001:0000CCE2
  2545 0001:0000CCF0  2547 0001:0000CCFE  2549 0001:0000CD0C  2551 0001:0000CD17
  2537 0001:0000CD1A  2552 0001:0000CD1D  2553 0001:0000CD28  2534 0001:0000CD35
  2557 0001:0000CD3A  2563 0001:0000CD9C  2564 0001:0000CDA2  2565 0001:0000CDA4
  2566 0001:0000CDA9  2569 0001:0000CDB1  2570 0001:0000CDB4  2572 0001:0000CDB5
  2574 0001:0000CDBF  2566 0001:0000CDC2  2576 0001:0000CDC5  2593 0001:0000CDCC
  2594 0001:0000CDDB  2595 0001:0000CDE0  2597 0001:0000CDEA  2598 0001:0000CDEE
  2600 0001:0000CE67  2602 0001:0000CE7A  2604 0001:0000CE8D  2606 0001:0000CEA0
  2608 0001:0000CEB0  2610 0001:0000CEC0  2612 0001:0000CED0  2614 0001:0000CEE0
  2616 0001:0000CEF0  2618 0001:0000CF00  2620 0001:0000CF10  2622 0001:0000CF20
  2624 0001:0000CF22  2625 0001:0000CF26  2626 0001:0000CF32  2595 0001:0000CF3A
  2628 0001:0000CF44  2631 0001:0000CF4C  2632 0001:0000CF52  2633 0001:0000CF6A
  2639 0001:0000CF70  2640 0001:0000CF7A  2642 0001:0000CF85  2643 0001:0000CF8B
  2644 0001:0000CF91  2645 0001:0000CFAD  2640 0001:0000CFAE  2646 0001:0000CFB1
  2649 0001:0000CFB8  2650 0001:0000CFBE  2651 0001:0000CFC8  2655 0001:0000CFCC
  2656 0001:0000CFD2  2659 0001:0000CFD4  2660 0001:0000CFDD  2661 0001:0000CFF0
  2669 0001:0000CFF4  2670 0001:0000CFFA  2671 0001:0000D004  2675 0001:0000D008
  2676 0001:0000D00E  2679 0001:0000D010  2680 0001:0000D016  2681 0001:0000D020
  2685 0001:0000D024  2686 0001:0000D02A  2692 0001:0000D02C  2693 0001:0000D03C
  2694 0001:0000D049  2695 0001:0000D063  2696 0001:0000D071  2698 0001:0000D07C
  2700 0001:0000D088  2702 0001:0000D0AC  2703 0001:0000D0AE  2704 0001:0000D0C0
  2707 0001:0000D0C2  2696 0001:0000D0C3  2707 0001:0000D0C6  2694 0001:0000D0CA
  2708 0001:0000D0D0  2709 0001:0000D0D2  2710 0001:0000D0DC  2716 0001:0000D0E4
  2717 0001:0000D0F4  2718 0001:0000D0FD  2719 0001:0000D117  2720 0001:0000D125
  2721 0001:0000D130  2722 0001:0000D13D  2724 0001:0000D149  2725 0001:0000D14B
  2726 0001:0000D15D  2727 0001:0000D15F  2720 0001:0000D160  2727 0001:0000D163
  2718 0001:0000D167  2728 0001:0000D16D  2729 0001:0000D16F  2730 0001:0000D179
  2735 0001:0000D184  2736 0001:0000D190  2737 0001:0000D196  2738 0001:0000D1A7
  2739 0001:0000D1C1  2740 0001:0000D1D5  2742 0001:0000D1E4  2743 0001:0000D1F2
  2744 0001:0000D1F4  2745 0001:0000D1F6  2737 0001:0000D1F7  2746 0001:0000D1FA
  2747 0001:0000D1FC  2748 0001:0000D203  2755 0001:0000D20C  2756 0001:0000D219
  2757 0001:0000D238  2758 0001:0000D23A  2759 0001:0000D23C  2761 0001:0000D241
  2762 0001:0000D252  2764 0001:0000D265  2765 0001:0000D275  2768 0001:0000D282
  2772 0001:0000D2E8  2774 0001:0000D2FD  2778 0001:0000D300  2779 0001:0000D305
  2787 0001:0000D308  2788 0001:0000D314  2790 0001:0000D335  2791 0001:0000D33C
  2795 0001:0000D347  2796 0001:0000D349  2798 0001:0000D34D  2803 0001:0000D354
  2804 0001:0000D35E  2805 0001:0000D36D  2807 0001:0000D37E  2808 0001:0000D385
  2823 0001:0000D38C  2824 0001:0000D3B4  2825 0001:0000D3BE  2826 0001:0000D3C8
  2827 0001:0000D3D2  2830 0001:0000D3DB  2831 0001:0000D3E8  2833 0001:0000D3EC
  2834 0001:0000D3F6  2836 0001:0000D3F8  2837 0001:0000D420  2838 0001:0000D43C
  2828 0001:0000D459  2840 0001:0000D485  2842 0001:0000D490  2843 0001:0000D4B2
  2844 0001:0000D4BB  2846 0001:0000D4CF  2849 0001:0000D4E0  2850 0001:0000D4EE
  2852 0001:0000D4F2  2853 0001:0000D501  2857 0001:0000D513  2860 0001:0000D532
  2865 0001:0000D551  2867 0001:0000D5AD  2869 0001:0000D5F0  2870 0001:0000D610
  2872 0001:0000D620  2873 0001:0000D62C  2874 0001:0000D64A  2878 0001:0000D654
  2879 0001:0000D65C  2881 0001:0000D682  2886 0001:0000D68C  2887 0001:0000D696
  2888 0001:0000D6A5  2889 0001:0000D6B4  2894 0001:0000D6BC  2895 0001:0000D6D3
  2896 0001:0000D6D8  2897 0001:0000D6EE  2898 0001:0000D70E  2901 0001:0000D714
  2902 0001:0000D71F  2903 0001:0000D736  2906 0001:0000D73C  2907 0001:0000D740
  2908 0001:0000D74F  2909 0001:0000D753  2910 0001:0000D760  2912 0001:0000D766
  2913 0001:0000D77A  2915 0001:0000D787  2923 0001:0000D78C  2924 0001:0000D78F
  2925 0001:0000D793  2926 0001:0000D79B  2927 0001:0000D7A0  2928 0001:0000D7A8
  2929 0001:0000D7AD  2959 0001:0000D7B0  2960 0001:0000D7B3  2962 0001:0000D7B4
  2963 0001:0000D7BE  2964 0001:0000D7CA  2965 0001:0000D7D5  2966 0001:0000D7D9
  2967 0001:0000D7E1  2969 0001:0000D7EA  2971 0001:0000D7F4  2974 0001:0000D803
  2975 0001:0000D80A  2976 0001:0000D815  2977 0001:0000D81C  2978 0001:0000D832
  2980 0001:0000D839  2981 0001:0000D853  2984 0001:0000D855  2969 0001:0000D856
  2987 0001:0000D859  2988 0001:0000D85E  2989 0001:0000D870  2990 0001:0000D87B
  3000 0001:0000D884  3001 0001:0000D893  3002 0001:0000D8BD  3003 0001:0000D8C4
  3005 0001:0000D8CC  3006 0001:0000D8EA  3007 0001:0000D8EC  3008 0001:0000D8F0
  3009 0001:0000D90B  3011 0001:0000D917  3012 0001:0000D926  3013 0001:0000D934
  3014 0001:0000D93F  3015 0001:0000D95B  3016 0001:0000D95F  3018 0001:0000D966
  3020 0001:0000D97D  3021 0001:0000D985  3024 0001:0000D9B6  3027 0001:0000D9D0
  3028 0001:0000D9D7  3029 0001:0000D9D9  3031 0001:0000D9DE  3032 0001:0000D9EE
  3033 0001:0000D9F7  3034 0001:0000D9FB  3036 0001:0000DA02  3037 0001:0000DA12
  3038 0001:0000DA1B  3039 0001:0000DA1F  3041 0001:0000DA26  3042 0001:0000DA36
  3043 0001:0000DA3F  3044 0001:0000DA43  3046 0001:0000DA4A  3047 0001:0000DA50
  3050 0001:0000DA54  3051 0001:0000DA5F  3052 0001:0000DA6B  3053 0001:0000DA77
  3054 0001:0000DA8E  3056 0001:0000DB30  3056 0001:0000DB37

Line numbers for EHook(EHook.pas) segment .text

   175 0001:0000DE10   176 0001:0000DE22   177 0001:0000DE2B   178 0001:0000DE4B
   181 0001:0000DE50   182 0001:0000DE56   183 0001:0000DE5F   187 0001:0000DE64
   188 0001:0000DE6D   192 0001:0000DE70   193 0001:0000DE79   199 0001:0000DE7C
   200 0001:0000DE82   202 0001:0000DE8B   203 0001:0000DE95   204 0001:0000DE9E
   209 0001:0000DEA4   210 0001:0000DEBC   211 0001:0000DEC4   212 0001:0000DED2
   213 0001:0000DEDD   212 0001:0000DEFB   215 0001:0000DF0B   217 0001:0000DF1B
   218 0001:0000DF27   219 0001:0000DF43   225 0001:0000DF4C   226 0001:0000DF53
   232 0001:0000DF54   233 0001:0000DF59   234 0001:0000DF60   235 0001:0000DF6B
   236 0001:0000DF76   237 0001:0000DF78   238 0001:0000DF86   239 0001:0000DF94
   245 0001:0000DF98   246 0001:0000DFA8   247 0001:0000DFAD   249 0001:0000DFBA
   250 0001:0000DFC4   251 0001:0000DFD2   252 0001:0000DFDF   254 0001:0000DFE4
   256 0001:0000DFF4   259 0001:0000E018   260 0001:0000E02A   262 0001:0000E02C
   254 0001:0000E02D   266 0001:0000E032   267 0001:0000E03E   268 0001:0000E048
   269 0001:0000E04A   270 0001:0000E050   271 0001:0000E056   274 0001:0000E06F
   277 0001:0000E084   282 0001:0000E08C   283 0001:0000E09A   284 0001:0000E09E
   286 0001:0000E0AB   287 0001:0000E0B5   288 0001:0000E0C3   290 0001:0000E0D3
   293 0001:0000E0F7   294 0001:0000E110   295 0001:0000E11C   296 0001:0000E120
   298 0001:0000E122   288 0001:0000E123   300 0001:0000E133   303 0001:0000E148
   310 0001:0000E150   311 0001:0000E15A   312 0001:0000E164   313 0001:0000E16F
   314 0001:0000E17C   315 0001:0000E189   320 0001:0000E190   321 0001:0000E193
   322 0001:0000E197   323 0001:0000E1A0   324 0001:0000E1AC   329 0001:0000E1B0
   330 0001:0000E1B9   331 0001:0000E1C9   332 0001:0000E1D7   339 0001:0000E1E0
   340 0001:0000E1E3   341 0001:0000E1E5   342 0001:0000E1F0   345 0001:0000E1F4
   346 0001:0000E1F7   347 0001:0000E1F9   348 0001:0000E209   350 0001:0000E20C
   351 0001:0000E229   352 0001:0000E22B   353 0001:0000E238   354 0001:0000E241
   355 0001:0000E247   357 0001:0000E257   358 0001:0000E259   360 0001:0000E26A
   363 0001:0000E275   364 0001:0000E277   367 0001:0000E280   368 0001:0000E282
   370 0001:0000E28B   373 0001:0000E28F   375 0001:0000E29F   376 0001:0000E2A1
   378 0001:0000E2AC   379 0001:0000E2B0   380 0001:0000E2B4   383 0001:0000E2B6
   385 0001:0000E2BC   387 0001:0000E2DA   389 0001:0000E2F4   391 0001:0000E303
   394 0001:0000E31A   395 0001:0000E332   402 0001:0000E348   403 0001:0000E353
   404 0001:0000E356   405 0001:0000E368   407 0001:0000E36A   408 0001:0000E36C
   409 0001:0000E3A6   410 0001:0000E3A7   411 0001:0000E3B7   412 0001:0000E3C2
   414 0001:0000E3C7   415 0001:0000E3CC   416 0001:0000E3CE   417 0001:0000E3CF
   418 0001:0000E3D1   422 0001:0000E3D5   423 0001:0000E3DA   424 0001:0000E3DC
   426 0001:0000E3DE   427 0001:0000E3F1   428 0001:0000E3F7   430 0001:0000E3FD
   432 0001:0000E401   433 0001:0000E407   435 0001:0000E418   436 0001:0000E41B
   441 0001:0000E427   442 0001:0000E42D   443 0001:0000E42E   445 0001:0000E44C
   447 0001:0000E455   454 0001:0000E480   455 0001:0000E489   457 0001:0000E490
   459 0001:0000E494   460 0001:0000E499   463 0001:0000E49E   464 0001:0000E4AC
   465 0001:0000E4AE   466 0001:0000E4B2   467 0001:0000E4B4   469 0001:0000E4B8
   472 0001:0000E4C8   474 0001:0000E4DD   475 0001:0000E4DF   477 0001:0000E4ED
   478 0001:0000E4F7   481 0001:0000E501   482 0001:0000E505   483 0001:0000E50C
   467 0001:0000E513   486 0001:0000E526   488 0001:0000E533   496 0001:0000E53C
   497 0001:0000E545   498 0001:0000E547   499 0001:0000E54B   500 0001:0000E551
   501 0001:0000E557   504 0001:0000E55B   507 0001:0000E56C   509 0001:0000E581
   510 0001:0000E583   512 0001:0000E591   513 0001:0000E597   514 0001:0000E59B
   517 0001:0000E5AE   518 0001:0000E5B3   519 0001:0000E5BB   502 0001:0000E5C3
   521 0001:0000E5CD   529 0001:0000E5D8   530 0001:0000E5E2   531 0001:0000E5E6
   532 0001:0000E5E8   533 0001:0000E5EC   534 0001:0000E5F4   535 0001:0000E5F9
   536 0001:0000E5FB   538 0001:0000E604   541 0001:0000E619   544 0001:0000E62E
   545 0001:0000E630   547 0001:0000E634   548 0001:0000E635   549 0001:0000E637
   550 0001:0000E63B   552 0001:0000E642   555 0001:0000E647   557 0001:0000E65F
   558 0001:0000E669   561 0001:0000E670   563 0001:0000E681   564 0001:0000E693
   565 0001:0000E69C   566 0001:0000E6A7   567 0001:0000E6B8   571 0001:0000E6BD
   574 0001:0000E6EA   575 0001:0000E6F3   578 0001:0000E6FA   580 0001:0000E707
   581 0001:0000E718   582 0001:0000E720   586 0001:0000E733   587 0001:0000E738
   588 0001:0000E740   536 0001:0000E748   590 0001:0000E751   599 0001:0000E75C
   600 0001:0000E76E   602 0001:0000E77E   603 0001:0000E78C   605 0001:0000E793
   606 0001:0000E796   608 0001:0000E79B   600 0001:0000E79C   610 0001:0000E79F
   611 0001:0000E7A2   612 0001:0000E7A4   614 0001:0000E7A6   615 0001:0000E7B7
   616 0001:0000E7BE   617 0001:0000E7C5   618 0001:0000E7CA   619 0001:0000E7DA
   622 0001:0000E7E5   623 0001:0000E7F1   624 0001:0000E7F6   625 0001:0000E7F9
   626 0001:0000E800   627 0001:0000E803   628 0001:0000E80D   629 0001:0000E819
   632 0001:0000E825   635 0001:0000E837   637 0001:0000E842   639 0001:0000E84D
   640 0001:0000E858   642 0001:0000E863   643 0001:0000E865   646 0001:0000E870
   647 0001:0000E89B   648 0001:0000E8A4   650 0001:0000E8AD   651 0001:0000E8B1
   653 0001:0000E8D9   655 0001:0000E8EB   658 0001:0000E920   659 0001:0000E92E
   661 0001:0000E948   663 0001:0000E99A   669 0001:0000EA40   670 0001:0000EA46
   671 0001:0000EA4A   674 0001:0000EA4E   675 0001:0000EA5C   677 0001:0000EA62
   678 0001:0000EA6D   679 0001:0000EA78   680 0001:0000EA83   681 0001:0000EA8A
   682 0001:0000EA96   684 0001:0000EA9A   672 0001:0000EA9B   686 0001:0000EAAB
   704 0001:0000EAB0   705 0001:0000EAC0   709 0001:0000EAC4   710 0001:0000EAC8
   711 0001:0000EACA   713 0001:0000EADA   716 0001:0000EAE9   717 0001:0000EAEE
   718 0001:0000EB06   719 0001:0000EB0A   722 0001:0000EB10   723 0001:0000EB16
   724 0001:0000EB1F   725 0001:0000EB48   727 0001:0000EB74   728 0001:0000EBA9
   730 0001:0000EBAE   731 0001:0000EBB4   733 0001:0000EBDA   735 0001:0000EBED
   737 0001:0000EC1E   738 0001:0000EC24   739 0001:0000EC2A   740 0001:0000EC49
   741 0001:0000EC51   743 0001:0000EC55   744 0001:0000EC5C   747 0001:0000EC61
   748 0001:0000EC73   750 0001:0000EC7A   751 0001:0000EC81   754 0001:0000EC86
   757 0001:0000EC90   758 0001:0000EC95   760 0001:0000ECAE   763 0001:0000ECB9
   765 0001:0000ECBF   766 0001:0000ECC1   770 0001:0000ECDF   771 0001:0000ECE7
   773 0001:0000ECEB   774 0001:0000ECFA   776 0001:0000ED00   777 0001:0000ED12
   778 0001:0000ED18   779 0001:0000ED1E   780 0001:0000ED23   781 0001:0000ED2E
   783 0001:0000ED3A   785 0001:0000ED40   761 0001:0000ED43   788 0001:0000ED4C
   755 0001:0000ED4F   791 0001:0000ED5A   792 0001:0000ED66   793 0001:0000EDBC
   802 0001:0000EE64   803 0001:0000EEBA   804 0001:0000EEBE   806 0001:0000EEDE
   808 0001:0000EEE9   809 0001:0000EEF8   811 0001:0000EEFC   813 0001:0000EF2F
   815 0001:0000EF42   806 0001:0000EF45   817 0001:0000EF48   818 0001:0000EF92
   835 0001:0000EFB0   836 0001:0000EFC1   837 0001:0000EFD2   838 0001:0000EFE3
   845 0001:0000EFE4   846 0001:0000EFED   848 0001:0000EFFB   849 0001:0000F007
   850 0001:0000F01E   851 0001:0000F02B   846 0001:0000F02C   852 0001:0000F02F
   853 0001:0000F037   854 0001:0000F03C   855 0001:0000F046   856 0001:0000F04D
   858 0001:0000F05B   859 0001:0000F067   860 0001:0000F06E   856 0001:0000F06F
   861 0001:0000F074   862 0001:0000F07E   863 0001:0000F085   871 0001:0000F08C
   873 0001:0000F0C9   867 0001:0000F0E0   868 0001:0000F0E9   870 0001:0000F0F8

Line numbers for ELang(ELang.pas) segment .text

    25 0001:0000F110    32 0001:0000F118    33 0001:0000F132    34 0001:0000F14F
    35 0001:0000F164    36 0001:0000F185    37 0001:0000F191    38 0001:0000F1B3
    67 0001:0000F1F0    67 0001:0000F1F7

Line numbers for ESockets(ESockets.pas) segment .text

    79 0001:0000F344    80 0001:0000F34A    81 0001:0000F34C    83 0001:0000F355
    84 0001:0000F365    85 0001:0000F36C    89 0001:0000F374    90 0001:0000F37E
    91 0001:0000F385    99 0001:0000F388   100 0001:0000F38E   101 0001:0000F39D
   102 0001:0000F3AD   104 0001:0000F3B1   106 0001:0000F3B3   107 0001:0000F3BE
   108 0001:0000F3C5   109 0001:0000F3CC   112 0001:0000F3D3   113 0001:0000F3DD
   118 0001:0000F3E4   119 0001:0000F400   120 0001:0000F410   121 0001:0000F41F
   122 0001:0000F441   123 0001:0000F457   124 0001:0000F473   125 0001:0000F495
   129 0001:0000F4C0   130 0001:0000F4D8   131 0001:0000F4E1   132 0001:0000F4E9
   133 0001:0000F4EF   134 0001:0000F4F4   135 0001:0000F4FA   136 0001:0000F504
   137 0001:0000F50C   138 0001:0000F522   139 0001:0000F528   140 0001:0000F52C
   141 0001:0000F547   144 0001:0000F550   145 0001:0000F55B   146 0001:0000F568
   147 0001:0000F57F   150 0001:0000F584   151 0001:0000F5A0   152 0001:0000F5AD
   153 0001:0000F5D5   154 0001:0000F5DC   155 0001:0000F5E2   156 0001:0000F5E7
   157 0001:0000F5ED   158 0001:0000F5F1   159 0001:0000F616   164 0001:0000F644
   165 0001:0000F667   167 0001:0000F671   169 0001:0000F676   170 0001:0000F688
   171 0001:0000F68B   172 0001:0000F6B3   173 0001:0000F6B9   174 0001:0000F6C6
   176 0001:0000F6D4   177 0001:0000F6E3   178 0001:0000F6E8   179 0001:0000F6FA
   180 0001:0000F70D   181 0001:0000F735   182 0001:0000F73F   187 0001:0000F7BD
   192 0001:0000F830   193 0001:0000F851   194 0001:0000F853   196 0001:0000F859
   197 0001:0000F86B   199 0001:0000F870   200 0001:0000F877   202 0001:0000F87F
   203 0001:0000F886   204 0001:0000F88A   207 0001:0000F8CE   213 0001:0000F8F8
   214 0001:0000F91A   215 0001:0000F91F   217 0001:0000F924   218 0001:0000F931
   219 0001:0000F93E   221 0001:0000F942   222 0001:0000F952   223 0001:0000F962
   224 0001:0000F964   226 0001:0000F985   227 0001:0000F9A9   232 0001:0000F9B0
   233 0001:0000F9D2   234 0001:0000F9D7   235 0001:0000F9E2   238 0001:0000F9F6
   239 0001:0000F9FC   240 0001:0000FA0C   242 0001:0000FA12   243 0001:0000FA19
   245 0001:0000FA21   246 0001:0000FA28   247 0001:0000FA2C   251 0001:0000FA71
   257 0001:0000FA98   258 0001:0000FAB9   260 0001:0000FAC1   261 0001:0000FACF
   263 0001:0000FAD3   264 0001:0000FADD   265 0001:0000FAFB   266 0001:0000FB09
   267 0001:0000FB14   269 0001:0000FB1B   270 0001:0000FB29   271 0001:0000FB30
   273 0001:0000FB42   274 0001:0000FB67   279 0001:0000FB70   280 0001:0000FB77
   282 0001:0000FB7E   283 0001:0000FB87   284 0001:0000FB93   285 0001:0000FBA4
   288 0001:0000FBA8   289 0001:0000FBB1   290 0001:0000FBBA   291 0001:0000FBDC
   296 0001:0000FBFC   297 0001:0000FC02   298 0001:0000FC09   299 0001:0000FC39
   306 0001:0000FC40   307 0001:0000FC7B   308 0001:0000FC7F   309 0001:0000FC89
   310 0001:0000FC90   311 0001:0000FCAA   313 0001:0000FCAF   314 0001:0000FCCD
   315 0001:0000FCD7   317 0001:0000FCDE   318 0001:0000FCE2   319 0001:0000FCE4
   314 0001:0000FCE7   321 0001:0000FD0F   325 0001:0000FD1C   326 0001:0000FD5D
   327 0001:0000FD5F   329 0001:0000FD69   330 0001:0000FD94   331 0001:0000FDA1
   333 0001:0000FDB9   334 0001:0000FDC4   336 0001:0000FDD2   337 0001:0000FE12
   366 0001:0000FE30   367 0001:0000FE46   368 0001:0000FE81   371 0001:0000FE98
   372 0001:0000FE9E   373 0001:0000FEB6   375 0001:0000FEBC   376 0001:0000FED9
   377 0001:0000FEE8   378 0001:0000FEED   379 0001:0000FEFA   380 0001:0000FF04
   381 0001:0000FF12   382 0001:0000FF22   384 0001:0000FF2A   385 0001:0000FF32
   387 0001:0000FF3B   388 0001:0000FF46   389 0001:0000FF54   390 0001:0000FF5E
   391 0001:0000FF62   393 0001:0000FF65   394 0001:0000FF82   395 0001:0000FF88
   397 0001:0000FF8C   398 0001:0000FFA6   395 0001:0000FFA8   402 0001:0000FFB9
   407 0001:0000FFD6   409 0001:0000FFE7   410 0001:00010018   414 0001:0001005C
   415 0001:00010076   421 0001:00010078   422 0001:000100A4   423 0001:000100AC
   424 0001:000100B7   426 0001:000100BC   429 0001:000100C8   430 0001:000100D4
   431 0001:000100D9   432 0001:000100EE   427 0001:000100F8   434 0001:00010106
   436 0001:00010116   437 0001:0001011E   439 0001:00010123   440 0001:0001014E
   441 0001:00010151   442 0001:0001016D   443 0001:0001019C   444 0001:000101A7
   445 0001:000101CE   453 0001:000101E4   454 0001:0001020A   457 0001:00010213
   458 0001:00010222   459 0001:00010231   460 0001:00010245   461 0001:00010254
   455 0001:0001027A   463 0001:000102A8   465 0001:000102BC   466 0001:000102D5
   467 0001:00010315   477 0001:00010344   478 0001:0001036F   479 0001:00010372
   480 0001:00010376   481 0001:0001038E   483 0001:00010393   484 0001:00010396
   486 0001:000103B3   487 0001:000103DC   489 0001:000103E4   490 0001:00010414
   491 0001:0001041C   492 0001:00010423   493 0001:00010431   494 0001:00010435
   496 0001:00010438   497 0001:00010454   498 0001:00010480   500 0001:00010486
   503 0001:0001048A   504 0001:00010495   506 0001:00010497   508 0001:0001049D
   509 0001:000104CD   520 0001:000104D4   521 0001:000104FF   522 0001:00010507
   523 0001:0001051B   524 0001:0001053E   525 0001:00010546   526 0001:00010554
   529 0001:0001055E   531 0001:00010563   532 0001:0001058F   533 0001:0001059D
   534 0001:000105A4   535 0001:000105AF   537 0001:000105C8   538 0001:000105D3
   541 0001:000105F1   543 0001:00010601   544 0001:00010604   545 0001:00010616
   527 0001:00010619   547 0001:00010633   548 0001:0001063B   551 0001:0001066E
   553 0001:000106A8   559 0001:000106E8   560 0001:000106ED   564 0001:000106F0
   565 0001:000106F5   573 0001:000106F8   575 0001:00010735   569 0001:00010750
   570 0001:00010759   572 0001:00010768

Line numbers for EZlib(EZLib.pas) segment .text

   212 0001:00010860   213 0001:00010869   217 0001:0001086C   218 0001:00010873
   229 0001:00010874   230 0001:00010883   235 0001:0001088C   236 0001:000108A3
   238 0001:000108A5   240 0001:000108A9   242 0001:000108F2   291 0001:000108F8
   292 0001:00010908   294 0001:00010917   295 0001:00010923   297 0001:00010928
   299 0001:00010937   300 0001:00010945   301 0001:00010948   302 0001:0001094B
   303 0001:00010953   305 0001:0001095B   307 0001:00010968   309 0001:00010976
   310 0001:00010982   312 0001:00010986   313 0001:0001098B   315 0001:00010998
   316 0001:000109A3   318 0001:000109A6   320 0001:000109B7   323 0001:000109CC
   324 0001:000109D7   326 0001:000109EE   327 0001:000109F8   329 0001:00010A02
   334 0001:00010A0C   335 0001:00010A0F   336 0001:00010A1F   339 0001:00010A24
   340 0001:00010A27   341 0001:00010A35   344 0001:00010A38   345 0001:00010A3B
   346 0001:00010A43   349 0001:00010A48   350 0001:00010A4B   351 0001:00010A53
   354 0001:00010A58   355 0001:00010A5B   356 0001:00010A63   359 0001:00010A68
   360 0001:00010A6B   361 0001:00010A70   365 0001:00010A74   366 0001:00010A7E
   369 0001:00010A80   370 0001:00010A83   371 0001:00010A8D   374 0001:00010A90
   375 0001:00010A93   377 0001:00010AAE   382 0001:00010AB0   383 0001:00010AB7
   384 0001:00010ABC   385 0001:00010ACB   386 0001:00010AD0   391 0001:00010AD4
   392 0001:00010ADB   393 0001:00010AE0   394 0001:00010AEF   395 0001:00010AF4
   398 0001:00010AF8   399 0001:00010AFB   400 0001:00010B0A   403 0001:00010B0C
   404 0001:00010B0F   405 0001:00010B20   407 0001:00010B24   408 0001:00010B29
   411 0001:00010B2C   412 0001:00010B2F   413 0001:00010B3C   415 0001:00010B40
   416 0001:00010B45   427 0001:00010B48   428 0001:00010B6D   430 0001:00010B7B
   431 0001:00010B90   434 0001:00010B99   436 0001:00010B9F   439 0001:00010BB3
   441 0001:00010BC8   442 0001:00010BD4   443 0001:00010BE8   446 0001:00010C00
   447 0001:00010C06   448 0001:00010C0D   449 0001:00010C14   450 0001:00010C1B
   451 0001:00010C22   456 0001:00010C46   459 0001:00010C4C   460 0001:00010C62
   461 0001:00010C74   462 0001:00010C9E   475 0001:00010CA4   476 0001:00010CB0
   477 0001:00010CCE   479 0001:00010CD6   480 0001:00010CD8   482 0001:00010CE0
   483 0001:00010D0D   485 0001:00010D11   486 0001:00010D16   488 0001:00010D2A
   489 0001:00010D34   490 0001:00010D42   491 0001:00010D51   493 0001:00010D66
   494 0001:00010D80   496 0001:00010D90   497 0001:00010D9E   498 0001:00010DAD
   500 0001:00010DC0   502 0001:00010DCB   503 0001:00010DCF   505 0001:00010DDE
   510 0001:00010E07   512 0001:00010E17   513 0001:00010E24   515 0001:00010E41
   518 0001:00010E5E   520 0001:00010E6E   521 0001:00010E97   526 0001:00010EA0
   527 0001:00010EA4   529 0001:00010EA6   530 0001:00010EAD   532 0001:00010EB1
   533 0001:00010EBA   535 0001:00010EBE   536 0001:00010EC2   627 0001:0001818C
   627 0001:00018193

Line numbers for EHash(EHash.pas) segment .text

    74 0001:00018194    76 0001:00018196    77 0001:00018198    78 0001:000181A2
    77 0001:000181B7    80 0001:000181BA    82 0001:000181C1    83 0001:000181C3
    85 0001:000181C8    86 0001:000181D2    83 0001:000181D4    88 0001:000181D7
    89 0001:000181D9    80 0001:000181DD    90 0001:000181E5    91 0001:000181EC
    96 0001:000181F0    97 0001:000181F6   100 0001:000181FF   101 0001:0001820D
   103 0001:00018210   104 0001:0001822A   105 0001:0001822B   106 0001:0001822C
   107 0001:00018230   109 0001:00018233   114 0001:00018238   115 0001:0001823D
   116 0001:0001823F   117 0001:0001824F   116 0001:00018279   118 0001:0001827E
   133 0001:00018284   134 0001:00018285   135 0001:00018298   137 0001:0001829C
   138 0001:000182A5   139 0001:000182B8   140 0001:000182BE   141 0001:000182C4
   142 0001:000182CA   144 0001:000182D3   145 0001:000182F5   146 0001:00018317
   147 0001:00018339   148 0001:0001835A   149 0001:0001837C   150 0001:0001839E
   151 0001:000183C0   152 0001:000183E1   153 0001:00018403   154 0001:00018425
   155 0001:00018447   156 0001:00018468   157 0001:0001848A   158 0001:000184AC
   159 0001:000184CE   161 0001:000184EF   162 0001:00018510   163 0001:00018532
   164 0001:00018554   165 0001:00018576   166 0001:00018597   167 0001:000185B9
   168 0001:000185DB   169 0001:000185FD   170 0001:0001861E   171 0001:00018640
   172 0001:00018662   173 0001:00018684   174 0001:000186A5   175 0001:000186C7
   176 0001:000186E9   178 0001:0001870B   179 0001:0001872A   180 0001:0001874A
   181 0001:0001876A   182 0001:00018789   183 0001:000187A8   184 0001:000187C8
   185 0001:000187E8   186 0001:00018807   187 0001:00018826   188 0001:00018846
   189 0001:00018866   190 0001:00018885   191 0001:000188A4   192 0001:000188C4
   193 0001:000188E4   195 0001:00018903   196 0001:00018924   197 0001:00018946
   198 0001:00018968   199 0001:00018989   200 0001:000189AA   201 0001:000189CC
   202 0001:000189EE   203 0001:00018A0F   204 0001:00018A30   205 0001:00018A52
   206 0001:00018A74   207 0001:00018A95   208 0001:00018AB6   209 0001:00018AD8
   210 0001:00018AFA   212 0001:00018B1B   213 0001:00018B21   214 0001:00018B27
   215 0001:00018B2D   216 0001:00018B36   217 0001:00018B3E   218 0001:00018B50
   220 0001:00018B58   221 0001:00018B67   222 0001:00018B6C   223 0001:00018B71
   224 0001:00018B76   225 0001:00018B85   227 0001:00018B94   228 0001:00018B9B
   229 0001:00018BA2   230 0001:00018BA9   232 0001:00018BB0   233 0001:00018BB8
   234 0001:00018BC0   237 0001:00018BC8   239 0001:00018BCC   241 0001:00018BD8
   242 0001:00018BE8   243 0001:00018BF2   244 0001:00018BF4   248 0001:00018BFD
   249 0001:00018C0D   250 0001:00018C10   237 0001:00018C12   253 0001:00018C16
   254 0001:00018C1E   255 0001:00018C2B   256 0001:00018C33   257 0001:00018C3B
   258 0001:00018C42   259 0001:00018C52   261 0001:00018C88   261 0001:00018C8F

Line numbers for EEncrypt(EEncrypt.pas) segment .text

    40 0001:00018C90    41 0001:00018C93    42 0001:00018C9E    43 0001:00018CAC
    41 0001:00018CAD    44 0001:00018CB0    48 0001:00018CB4    50 0001:00018CE5
    57 0001:00018CE8    58 0001:00018CF4    59 0001:00018CFD    60 0001:00018D09
    61 0001:00018D0B    62 0001:00018D11    63 0001:00018D1B    64 0001:00018D25
    65 0001:00018D2F    67 0001:00018D34    68 0001:00018D39    69 0001:00018D53
    65 0001:00018D6F    71 0001:00018D72    72 0001:00018D7E    73 0001:00018D8D
    78 0001:00018D98    79 0001:00018DA4    80 0001:00018DAD    81 0001:00018DB9
    82 0001:00018DBE    83 0001:00018DC4    84 0001:00018DCE    85 0001:00018DD8
    86 0001:00018DE2    88 0001:00018DE7    89 0001:00018E03    90 0001:00018E1D
    86 0001:00018E22    92 0001:00018E25    93 0001:00018E31    94 0001:00018E40
    99 0001:00018E48   100 0001:00018E56   101 0001:00018E63   102 0001:00018E71
   103 0001:00018E8D   104 0001:00018E9B   105 0001:00018EA4   106 0001:00018EAF
   107 0001:00018EBA   109 0001:00018ED2   111 0001:00018EE2   143 0001:00018EE8
   144 0001:00018EF6   145 0001:00018F0A   146 0001:00018F0C   147 0001:00018F0E
   149 0001:00018F18   150 0001:00018F28   151 0001:00018F38   152 0001:00018F41
   153 0001:00018F52   154 0001:00018F65   155 0001:00018F68   147 0001:00018F6B
   157 0001:00018F6E   159 0001:00018F78   160 0001:00018F87   161 0001:00018F94
   163 0001:00018FA2   165 0001:00018FDC   165 0001:00018FE3

Line numbers for EBase64(EBase64.pas) segment .text

    98 0001:00018FE4   100 0001:00018FE7   101 0001:00018FF7   102 0001:00019006
   103 0001:0001900B   106 0001:00019010   107 0001:00019012   108 0001:00019014
   109 0001:00019018   110 0001:00019021   111 0001:00019029   113 0001:0001903C
   114 0001:00019045   120 0001:00019048   123 0001:0001904E   125 0001:00019050
   129 0001:00019052   131 0001:00019054   133 0001:00019059   135 0001:0001905B
   137 0001:0001905D   139 0001:00019060   141 0001:00019063   144 0001:00019069
   145 0001:0001906B   146 0001:0001906D   147 0001:0001906F   148 0001:00019073
   151 0001:00019075   153 0001:00019077   154 0001:00019079   155 0001:0001907C
   157 0001:0001907F   158 0001:00019081   160 0001:00019084   161 0001:00019088
   162 0001:0001908C   163 0001:0001908F   165 0001:00019092   167 0001:00019094
   169 0001:00019095   170 0001:00019097   171 0001:0001909B   173 0001:0001909E
   174 0001:000190A0   175 0001:000190A2   176 0001:000190A5   178 0001:000190A8
   179 0001:000190AA   180 0001:000190AD   183 0001:000190AF   184 0001:000190B3
   186 0001:000190B5   187 0001:000190B7   188 0001:000190B9   190 0001:000190BB
   192 0001:000190BC   193 0001:000190C0   195 0001:000190C2   197 0001:000190C5
   198 0001:000190C8   200 0001:000190CA   201 0001:000190CE   203 0001:000190D1
   205 0001:000190D2   206 0001:000190D6   208 0001:000190D8   209 0001:000190DB
   211 0001:000190DE   212 0001:000190E1   214 0001:000190E3   216 0001:000190E6
   217 0001:000190E8   220 0001:000190EA   221 0001:000190ED   223 0001:000190EF
   224 0001:000190F2   226 0001:000190F5   227 0001:000190F7   232 0001:000190F9
   233 0001:000190FB   235 0001:000190FE   237 0001:000190FF   258 0001:00019104
   259 0001:00019105   260 0001:00019107   261 0001:00019109   262 0001:0001910B
   263 0001:0001910E   264 0001:00019114   265 0001:0001911A   266 0001:0001911C
   267 0001:0001911D   268 0001:0001911F   269 0001:00019120   272 0001:00019122
   274 0001:00019123   276 0001:00019125   278 0001:00019127   280 0001:0001912A
   282 0001:0001912C   284 0001:0001912F   286 0001:00019132   288 0001:00019136
   290 0001:00019137   292 0001:0001913B   294 0001:0001913E   296 0001:00019140
   298 0001:00019143   300 0001:00019146   302 0001:0001914A   304 0001:0001914C
   306 0001:0001914F   308 0001:00019151   310 0001:00019153   311 0001:00019154
   312 0001:00019156   318 0001:00019157   320 0001:00019158   322 0001:0001915A
   324 0001:0001915C   326 0001:0001915F   328 0001:00019161   330 0001:00019164
   332 0001:00019167   334 0001:0001916B   336 0001:0001916C   338 0001:0001916F
   339 0001:00019172   341 0001:00019174   343 0001:00019178   345 0001:0001917A
   347 0001:0001917D   349 0001:00019180   351 0001:00019184   353 0001:00019185
   354 0001:00019188   356 0001:0001918A   358 0001:0001918C   360 0001:0001918F
   362 0001:00019191   364 0001:00019193   367 0001:00019194   368 0001:00019195
   374 0001:00019198   376 0001:000191A2   378 0001:000191AB   380 0001:000191B2
   381 0001:000191BA   382 0001:000191C4   384 0001:000191CF   385 0001:000191DC
   391 0001:000191E4   393 0001:000191EE   395 0001:000191F7   396 0001:00019201
   398 0001:0001920C   399 0001:00019215   400 0001:00019225   402 0001:00019230
   403 0001:0001923D   407 0001:00019244   408 0001:00019249   412 0001:0001924C
   413 0001:00019251   418 0001:00019254   419 0001:0001925E   420 0001:0001926E
   421 0001:00019278   422 0001:00019283   424 0001:000192B8   424 0001:000192BF

Line numbers for EZip(EZip.pas) segment .text

    54 0001:0001932C    55 0001:00019344    56 0001:00019353    57 0001:00019375
    60 0001:0001937C    61 0001:0001939F    62 0001:000193E0    65 0001:000193E8
    66 0001:000193F3    67 0001:000193FB    68 0001:00019412    70 0001:00019448
    70 0001:0001944F

Line numbers for EWebTools(EWebTools.pas) segment .text

   385 0001:00019758   386 0001:0001975D   387 0001:0001976F   386 0001:00019785
   388 0001:00019788   413 0001:0001978C   414 0001:000197AE   415 0001:000197B8
   414 0001:000197ED   417 0001:000197F0   419 0001:000197F5   420 0001:00019805
   422 0001:0001980D   423 0001:00019810   424 0001:00019822   426 0001:00019828
   427 0001:0001983E   428 0001:0001984C   429 0001:00019852   432 0001:0001989D
   433 0001:000198C7   445 0001:000198E8   446 0001:00019904   447 0001:00019908
   449 0001:00019919   450 0001:00019927   452 0001:00019940   453 0001:00019944
   455 0001:00019946   447 0001:0001994C   456 0001:00019974   458 0001:0001997C
   459 0001:000199B0   460 0001:000199B7   461 0001:000199BB   462 0001:000199BF
   463 0001:000199C3   464 0001:000199D8   465 0001:000199FB   466 0001:00019A0D
   468 0001:00019A15   469 0001:00019A1F   473 0001:00019A21   475 0001:00019A27
   477 0001:00019A37   479 0001:00019A45   482 0001:00019A58   483 0001:00019A61
   470 0001:00019A62   485 0001:00019A82   486 0001:00019A8A   487 0001:00019AAB
   490 0001:00019AB2   494 0001:00019ABD   495 0001:00019ACB   492 0001:00019ACC
   497 0001:00019AF2   499 0001:00019B24   488 0001:00019B25   502 0001:00019B30
   503 0001:00019B59   508 0001:00019B70   509 0001:00019B78   511 0001:00019B7C
   512 0001:00019B83   515 0001:00019B85   516 0001:00019B8A   517 0001:00019B93
   518 0001:00019B9E   519 0001:00019BB2   520 0001:00019BC1   526 0001:00019BC8
   527 0001:00019C05   528 0001:00019C09   529 0001:00019C10   531 0001:00019C15
   532 0001:00019C4C   534 0001:00019C56   535 0001:00019C9D   536 0001:00019CA2
   537 0001:00019CCF   538 0001:00019CFC   540 0001:00019D10   541 0001:00019D1A
   542 0001:00019D1E   545 0001:00019D20   546 0001:00019D5F   552 0001:00019DA8
   553 0001:00019DE8   554 0001:00019DEF   555 0001:00019DF3   557 0001:00019DF8
   558 0001:00019E38   560 0001:00019E42   561 0001:00019E89   562 0001:00019E8E
   563 0001:00019EBB   565 0001:00019EC9   566 0001:00019ED9   568 0001:00019EDF
   569 0001:00019F1A   571 0001:00019F1E   574 0001:00019F20   575 0001:00019F5F
   581 0001:00019FB4   582 0001:00019FEC   583 0001:00019FF4   585 0001:00019FF9
   586 0001:0001A028   588 0001:0001A032   589 0001:0001A03D   590 0001:0001A042
   591 0001:0001A06F   592 0001:0001A089   595 0001:0001A090   596 0001:0001A09C
   597 0001:0001A0C1   593 0001:0001A0C2   599 0001:0001A0CE   600 0001:0001A0DE
   601 0001:0001A0FE   602 0001:0001A11A   604 0001:0001A128   605 0001:0001A133
   608 0001:0001A135   609 0001:0001A171   615 0001:0001A1B4   616 0001:0001A1EC
   617 0001:0001A1F3   618 0001:0001A1F7   620 0001:0001A1FC   621 0001:0001A22B
   623 0001:0001A231   624 0001:0001A236   625 0001:0001A263   627 0001:0001A271
   628 0001:0001A28B   629 0001:0001A2A9   630 0001:0001A2AD   633 0001:0001A2AF
   634 0001:0001A2EE   645 0001:0001A328   646 0001:0001A351   647 0001:0001A355
   648 0001:0001A36B   649 0001:0001A36D   650 0001:0001A371   653 0001:0001A378
   655 0001:0001A388   656 0001:0001A397   658 0001:0001A3B9   659 0001:0001A3BD
   661 0001:0001A3BF   651 0001:0001A3C0   663 0001:0001A3F9   665 0001:0001A414
   666 0001:0001A440   667 0001:0001A447   669 0001:0001A44C   670 0001:0001A479
   672 0001:0001A47F   674 0001:0001A48B   675 0001:0001A490   676 0001:0001A4BD
   677 0001:0001A4C7   680 0001:0001A4C9   681 0001:0001A500   687 0001:0001A538
   688 0001:0001A56C   689 0001:0001A573   690 0001:0001A577   692 0001:0001A57C
   693 0001:0001A5AB   695 0001:0001A5B1   696 0001:0001A5B6   697 0001:0001A5E3
   699 0001:0001A5F1   700 0001:0001A60B   701 0001:0001A626   702 0001:0001A62A
   705 0001:0001A62C   706 0001:0001A66B   711 0001:0001A6A4   712 0001:0001A6DD
   713 0001:0001A6E4   714 0001:0001A6FA   715 0001:0001A710   716 0001:0001A715
   718 0001:0001A719   719 0001:0001A728   716 0001:0001A736   721 0001:0001A739
   725 0001:0001A73F   726 0001:0001A758   723 0001:0001A759   729 0001:0001A7A0
   735 0001:0001A7B4   736 0001:0001A7C8   739 0001:0001A7CC   740 0001:0001A7D3
   741 0001:0001A7D5   742 0001:0001A7E1   744 0001:0001A7EA   745 0001:0001A7FC
   746 0001:0001A80E   747 0001:0001A820   748 0001:0001A832   749 0001:0001A844
   750 0001:0001A856   751 0001:0001A868   752 0001:0001A87A   753 0001:0001A88C
   754 0001:0001A89E   755 0001:0001A8B0   756 0001:0001A8C2   757 0001:0001A8D4
   758 0001:0001A8E6   759 0001:0001A8F8   760 0001:0001A90A   762 0001:0001A91C
   772 0001:0001A9C3   773 0001:0001A9CE   778 0001:0001AB40   779 0001:0001AB43
   780 0001:0001AB58   785 0001:0001AB5C   786 0001:0001AB66   787 0001:0001AB75
   788 0001:0001AB83   789 0001:0001AB8D   791 0001:0001ABB1   793 0001:0001ABC1
   800 0001:0001ABC8   801 0001:0001ABEE   802 0001:0001ABF6   803 0001:0001ABFD
   804 0001:0001AC07   806 0001:0001AC21   807 0001:0001AC2B   810 0001:0001AC30
   811 0001:0001AC37   812 0001:0001AC41   814 0001:0001AC4B   815 0001:0001AC7E
   816 0001:0001ACA2   812 0001:0001ACA8   817 0001:0001ACD0   820 0001:0001ACD8
   821 0001:0001ACF1   823 0001:0001ACF5   824 0001:0001AD01   825 0001:0001AD18
   826 0001:0001AD20   827 0001:0001AD3A   829 0001:0001AD3E   830 0001:0001AD64
   838 0001:0001AD6C   839 0001:0001AD8A   840 0001:0001ADB3   842 0001:0001ADBB
   843 0001:0001ADD4   844 0001:0001ADE0   845 0001:0001ADF2   847 0001:0001AE21
   860 0001:0001AE50   861 0001:0001AE61   862 0001:0001AE69   863 0001:0001AE75
   865 0001:0001AE79   867 0001:0001AE7F   868 0001:0001AE8B   867 0001:0001AEA1
   870 0001:0001AEA4   871 0001:0001AEAE   872 0001:0001AEC1   874 0001:0001AED5
   879 0001:0001AEE0   880 0001:0001AEFA   881 0001:0001AF01   883 0001:0001AF06
   884 0001:0001AF15   883 0001:0001AF22   885 0001:0001AF26   887 0001:0001AF2F
   888 0001:0001AF46   890 0001:0001AF85   892 0001:0001AF98   893 0001:0001AFCA
   894 0001:0001AFCC   895 0001:0001AFE2   896 0001:0001B007   897 0001:0001B00C
   898 0001:0001B017   900 0001:0001B01D   901 0001:0001B02B   903 0001:0001B031
   904 0001:0001B033   908 0001:0001B035   909 0001:0001B046   910 0001:0001B058
   911 0001:0001B06A   912 0001:0001B07C   913 0001:0001B0C7   918 0001:0001B100
   919 0001:0001B10E   920 0001:0001B116   921 0001:0001B11F   923 0001:0001B127
   924 0001:0001B135   926 0001:0001B139   927 0001:0001B14F   930 0001:0001B15F
   931 0001:0001B16A   932 0001:0001B177   934 0001:0001B17B   935 0001:0001B18F
   937 0001:0001B1A1   944 0001:0001B1B8   945 0001:0001B1DD   946 0001:0001B1E1
   947 0001:0001B1E8   948 0001:0001B1ED   949 0001:0001B1F9   952 0001:0001B209
   954 0001:0001B213   955 0001:0001B21B   959 0001:0001B229   960 0001:0001B22D
   950 0001:0001B237   963 0001:0001B252   965 0001:0001B26D   968 0001:0001B27D
   970 0001:0001B289   971 0001:0001B29A   973 0001:0001B2EF   980 0001:0001B304
   981 0001:0001B323   982 0001:0001B32A   983 0001:0001B33D   984 0001:0001B36D
   982 0001:0001B399   985 0001:0001B3BE   993 0001:0001B3D4   994 0001:0001B40A
   996 0001:0001B417   998 0001:0001B426   999 0001:0001B42E  1000 0001:0001B44B
  1001 0001:0001B45A  1003 0001:0001B45E  1004 0001:0001B477  1006 0001:0001B48B
  1007 0001:0001B4C2  1008 0001:0001B4D9  1009 0001:0001B4DD  1010 0001:0001B4E4
  1011 0001:0001B4EF  1012 0001:0001B4F7  1016 0001:0001B4FD  1019 0001:0001B525
  1020 0001:0001B542  1021 0001:0001B54F  1023 0001:0001B555  1025 0001:0001B559
  1026 0001:0001B568  1027 0001:0001B577  1028 0001:0001B5B8  1031 0001:0001B5F8
  1032 0001:0001B603  1033 0001:0001B60A  1034 0001:0001B612  1035 0001:0001B617
  1036 0001:0001B61C  1037 0001:0001B624  1038 0001:0001B629  1039 0001:0001B631
  1040 0001:0001B636  1041 0001:0001B64D  1058 0001:0001B650  1059 0001:0001B658
  1061 0001:0001B663  1062 0001:0001B665  1064 0001:0001B672  1065 0001:0001B678
  1067 0001:0001B690  1069 0001:0001B6B0  1071 0001:0001B6B7  1074 0001:0001B6EC
  1075 0001:0001B6F3  1078 0001:0001B702  1079 0001:0001B706  1080 0001:0001B72C
  1083 0001:0001B784  1084 0001:0001B78C  1085 0001:0001B797  1087 0001:0001B7C2
  1089 0001:0001B7D1  1090 0001:0001B7D5  1091 0001:0001B7FB  1108 0001:0001B840
  1109 0001:0001B85A  1111 0001:0001B8DB  1114 0001:0001B904  1115 0001:0001B925
  1116 0001:0001B929  1118 0001:0001B963  1119 0001:0001B98D  1124 0001:0001B994
  1125 0001:0001B9CC  1127 0001:0001B9D3  1129 0001:0001B9D9  1131 0001:0001B9EB
  1136 0001:0001BA43  1129 0001:0001BA44  1139 0001:0001BA47  1141 0001:0001BA51
  1143 0001:0001BA67  1144 0001:0001BA84  1152 0001:0001BB0B  1157 0001:0001BB52
  1141 0001:0001BB53  1160 0001:0001BB5A  1161 0001:0001BBBC  1163 0001:0001BD14
  1164 0001:0001BD42  1165 0001:0001BD46  1167 0001:0001BD53  1168 0001:0001BD5D
  1170 0001:0001BD77  1174 0001:0001BD7E  1175 0001:0001BD87  1179 0001:0001BD9C
  1182 0001:0001BDB9  1183 0001:0001BDC6  1184 0001:0001BDCE  1185 0001:0001BDD6
  1186 0001:0001BDE4  1188 0001:0001BDF9  1189 0001:0001BE0E  1190 0001:0001BE1B
  1192 0001:0001BE84  1186 0001:0001BE85  1196 0001:0001BE91  1197 0001:0001BE9E
  1198 0001:0001BEA6  1199 0001:0001BEB3  1200 0001:0001BEC1  1202 0001:0001BED6
  1203 0001:0001BEE7  1205 0001:0001BF3F  1200 0001:0001BF40  1209 0001:0001BF45
  1210 0001:0001BF52  1211 0001:0001BF5A  1212 0001:0001BF6A  1216 0001:0001BF82
  1219 0001:0001BFD3  1221 0001:0001BFEA  1223 0001:0001BFF3  1224 0001:0001BFFA
  1225 0001:0001C00E  1226 0001:0001C015  1229 0001:0001C027  1231 0001:0001C02D
  1233 0001:0001C04D  1236 0001:0001C061  1238 0001:0001C073  1240 0001:0001C0B8
  1242 0001:0001C0D8  1245 0001:0001C0EC  1247 0001:0001C0F5  1249 0001:0001C120
  1251 0001:0001C134  1253 0001:0001C15F  1259 0001:0001C173  1260 0001:0001C17E
  1261 0001:0001C190  1262 0001:0001C19A  1263 0001:0001C1A3  1264 0001:0001C1C0
  1265 0001:0001C1D4  1266 0001:0001C1E2  1267 0001:0001C1F1  1268 0001:0001C209
  1270 0001:0001C217  1271 0001:0001C21C  1272 0001:0001C230  1274 0001:0001C263
  1276 0001:0001C26D  1278 0001:0001C273  1279 0001:0001C297  1280 0001:0001C2A1
  1282 0001:0001C2AD  1268 0001:0001C2AE  1284 0001:0001C2C2  1285 0001:0001C2D2
  1289 0001:0001C2FA  1290 0001:0001C30E  1293 0001:0001C31E  1296 0001:0001C333
  1298 0001:0001C348  1299 0001:0001C34A  1300 0001:0001C35E  1301 0001:0001C368
  1305 0001:0001C371  1306 0001:0001C38B  1307 0001:0001C391  1308 0001:0001C3D7
  1309 0001:0001C3DD  1310 0001:0001C421  1312 0001:0001C42B  1316 0001:0001C44E
  1317 0001:0001C461  1318 0001:0001C47B  1319 0001:0001C48C  1320 0001:0001C493
  1321 0001:0001C49E  1324 0001:0001C4AB  1326 0001:0001C4B5  1328 0001:0001C4CC
  1329 0001:0001C4E6  1330 0001:0001C4F7  1331 0001:0001C4FE  1332 0001:0001C509
  1333 0001:0001C514  1337 0001:0001C520  1339 0001:0001C532  1341 0001:0001C544
  1342 0001:0001C551  1352 0001:0001C560  1353 0001:0001C5A9  1356 0001:0001C698
  1357 0001:0001C6A1  1358 0001:0001C6AE  1359 0001:0001C6B1  1360 0001:0001C6B9
  1361 0001:0001C6C1  1364 0001:0001C6C8  1365 0001:0001C6E4  1366 0001:0001C720
  1371 0001:0001C734  1372 0001:0001C74F  1373 0001:0001C763  1374 0001:0001C7A6
  1379 0001:0001C7B8  1380 0001:0001C7D3  1381 0001:0001C7E7  1382 0001:0001C82A
  1387 0001:0001C83C  1388 0001:0001C857  1389 0001:0001C86B  1390 0001:0001C8AE
  1395 0001:0001C8C0  1396 0001:0001C8E2  1398 0001:0001C8F9  1399 0001:0001C90D
  1401 0001:0001C930  1402 0001:0001C973  1416 0001:0001C988  1417 0001:0001C9A4
  1418 0001:0001C9B8  1419 0001:0001C9C2  1420 0001:0001C9CC  1421 0001:0001CA0D
  1423 0001:0001CA20  1424 0001:0001CA4D  1425 0001:0001CA4F  1426 0001:0001CA60
  1427 0001:0001CA6F  1429 0001:0001CA77  1430 0001:0001CA7E  1431 0001:0001CA90
  1432 0001:0001CAA2  1433 0001:0001CAC9  1435 0001:0001CACF  1437 0001:0001CAE3
  1438 0001:0001CAE6  1441 0001:0001CB39  1444 0001:0001CB3B  1445 0001:0001CB70
  1449 0001:0001CB90  1450 0001:0001CBB2  1453 0001:0001CC50  1456 0001:0001CC5C
  1457 0001:0001CC7E  1458 0001:0001CCD8  1461 0001:0001CD00  1462 0001:0001CD1F
  1463 0001:0001CD72  1476 0001:0001CD8C  1477 0001:0001CDBC  1478 0001:0001CDD3
  1481 0001:0001CDE1  1482 0001:0001CDED  1483 0001:0001CDFC  1484 0001:0001CE0E
  1485 0001:0001CE1E  1486 0001:0001CE2E  1487 0001:0001CE3C  1490 0001:0001CE60
  1491 0001:0001CE6C  1492 0001:0001CE7B  1493 0001:0001CE8B  1494 0001:0001CE99
  1498 0001:0001CF05  1499 0001:0001CF11  1500 0001:0001CF20  1501 0001:0001CF32
  1502 0001:0001CF44  1503 0001:0001CF56  1504 0001:0001CF6E  1506 0001:0001CF7C
  1512 0001:0001CFB8  1515 0001:0001CFEA  1516 0001:0001CFF9  1517 0001:0001D007
  1520 0001:0001D02B  1522 0001:0001D03A  1523 0001:0001D047  1524 0001:0001D054
  1525 0001:0001D064  1526 0001:0001D074  1527 0001:0001D086  1528 0001:0001D093
  1529 0001:0001D0A0  1530 0001:0001D0AD  1531 0001:0001D0CD  1532 0001:0001D0ED
  1533 0001:0001D0FD  1534 0001:0001D115  1535 0001:0001D125  1536 0001:0001D145
  1537 0001:0001D154  1538 0001:0001D166  1540 0001:0001D173  1541 0001:0001D197
  1542 0001:0001D1A5  1543 0001:0001D1C1  1544 0001:0001D1CA  1546 0001:0001D1D3
  1550 0001:0001D1DC  1551 0001:0001D1E8  1552 0001:0001D200  1553 0001:0001D218
  1554 0001:0001D21E  1555 0001:0001D236  1556 0001:0001D245  1557 0001:0001D255
  1558 0001:0001D263  1561 0001:0001D287  1562 0001:0001D296  1564 0001:0001D2AB
  1565 0001:0001D2BD  1566 0001:0001D2E1  1570 0001:0001D2EE  1571 0001:0001D2FE
  1572 0001:0001D30B  1573 0001:0001D318  1574 0001:0001D325  1575 0001:0001D332
  1576 0001:0001D33F  1577 0001:0001D34C  1578 0001:0001D359  1579 0001:0001D366
  1580 0001:0001D373  1581 0001:0001D380  1582 0001:0001D38D  1583 0001:0001D39A
  1584 0001:0001D3A8  1585 0001:0001D3C4  1586 0001:0001D3CA  1589 0001:0001D3D0
  1591 0001:0001D3D6  1594 0001:0001D3DC  1596 0001:0001D3E2  1598 0001:0001D3E8
  1604 0001:0001D3F9  1606 0001:0001D42E  1619 0001:0001D9A0  1620 0001:0001D9CF
  1621 0001:0001D9E6  1624 0001:0001D9F4  1625 0001:0001DA00  1626 0001:0001DA0F
  1627 0001:0001DA1F  1628 0001:0001DA2F  1629 0001:0001DA3F  1630 0001:0001DA4D
  1633 0001:0001DA71  1634 0001:0001DA7D  1635 0001:0001DA8C  1636 0001:0001DA9E
  1637 0001:0001DAB0  1638 0001:0001DAC2  1639 0001:0001DAD2  1640 0001:0001DAEA
  1642 0001:0001DAF8  1645 0001:0001DB1C  1647 0001:0001DB35  1648 0001:0001DB41
  1649 0001:0001DB50  1650 0001:0001DB60  1651 0001:0001DB6E  1654 0001:0001DB92
  1656 0001:0001DBA1  1657 0001:0001DBAE  1658 0001:0001DBBB  1659 0001:0001DBC8
  1660 0001:0001DBD5  1661 0001:0001DBE2  1662 0001:0001DBEF  1663 0001:0001DBFC
  1664 0001:0001DC09  1665 0001:0001DC16  1666 0001:0001DC26  1667 0001:0001DC33
  1668 0001:0001DC40  1669 0001:0001DC4D  1670 0001:0001DC5A  1671 0001:0001DC67
  1672 0001:0001DC7F  1673 0001:0001DC8F  1674 0001:0001DC9C  1675 0001:0001DCA9
  1676 0001:0001DCB6  1677 0001:0001DCC8  1678 0001:0001DCD6  1681 0001:0001DCFA
  1683 0001:0001DD09  1684 0001:0001DD1B  1685 0001:0001DD2B  1686 0001:0001DD3D
  1687 0001:0001DD4F  1688 0001:0001DD61  1689 0001:0001DD73  1690 0001:0001DD82
  1691 0001:0001DD94  1692 0001:0001DDA6  1693 0001:0001DDB8  1694 0001:0001DDCA
  1696 0001:0001DDD9  1697 0001:0001DDFD  1698 0001:0001DE0B  1699 0001:0001DE27
  1700 0001:0001DE30  1702 0001:0001DE39  1704 0001:0001DE42  1708 0001:0001DE4B
  1709 0001:0001DE57  1710 0001:0001DE6F  1711 0001:0001DE87  1712 0001:0001DE96
  1713 0001:0001DEA6  1714 0001:0001DEB4  1717 0001:0001DED8  1718 0001:0001DEE7
  1720 0001:0001DEFC  1721 0001:0001DF28  1725 0001:0001DF35  1726 0001:0001DF42
  1727 0001:0001DF4F  1728 0001:0001DF5C  1729 0001:0001DF69  1730 0001:0001DF76
  1731 0001:0001DF83  1732 0001:0001DF90  1733 0001:0001DF9D  1734 0001:0001DFAA
  1735 0001:0001DFB7  1736 0001:0001DFC4  1737 0001:0001DFD1  1738 0001:0001DFDE
  1739 0001:0001DFEB  1740 0001:0001DFF8  1741 0001:0001E005  1742 0001:0001E012
  1743 0001:0001E01F  1744 0001:0001E031  1745 0001:0001E03E  1746 0001:0001E04B
  1747 0001:0001E058  1748 0001:0001E065  1749 0001:0001E077  1750 0001:0001E084
  1751 0001:0001E091  1752 0001:0001E09E  1753 0001:0001E0AB  1754 0001:0001E0B9
  1755 0001:0001E0D5  1756 0001:0001E0DB  1759 0001:0001E0E1  1761 0001:0001E0E7
  1764 0001:0001E0ED  1766 0001:0001E0F3  1772 0001:0001E104  1774 0001:0001E139
  1787 0001:0001E73C  1788 0001:0001E76F  1789 0001:0001E786  1792 0001:0001E794
  1793 0001:0001E7A0  1794 0001:0001E7AF  1795 0001:0001E7C1  1796 0001:0001E7D1
  1797 0001:0001E7E1  1798 0001:0001E7F3  1799 0001:0001E808  1800 0001:0001E827
  1801 0001:0001E835  1803 0001:0001E859  1804 0001:0001E865  1805 0001:0001E874
  1806 0001:0001E886  1807 0001:0001E898  1808 0001:0001E8AA  1809 0001:0001E8BC
  1810 0001:0001E8CE  1811 0001:0001E8E6  1813 0001:0001E8F4  1817 0001:0001E918
  1821 0001:0001E94A  1822 0001:0001E956  1823 0001:0001E965  1824 0001:0001E977
  1825 0001:0001E989  1826 0001:0001E997  1829 0001:0001E9B6  1831 0001:0001E9C5
  1832 0001:0001E9D2  1833 0001:0001E9DF  1834 0001:0001E9EC  1835 0001:0001E9F9
  1836 0001:0001EA06  1837 0001:0001EA13  1838 0001:0001EA20  1839 0001:0001EA2D
  1840 0001:0001EA45  1841 0001:0001EA55  1842 0001:0001EA65  1843 0001:0001EA8D
  1844 0001:0001EAA2  1845 0001:0001EAB2  1846 0001:0001EABF  1847 0001:0001EACC
  1848 0001:0001EADE  1849 0001:0001EAEB  1850 0001:0001EAF8  1851 0001:0001EB07
  1853 0001:0001EB14  1854 0001:0001EB38  1855 0001:0001EB46  1856 0001:0001EB62
  1857 0001:0001EB6B  1859 0001:0001EB74  1863 0001:0001EB7D  1864 0001:0001EB89
  1865 0001:0001EBA1  1866 0001:0001EBB9  1867 0001:0001EBC8  1868 0001:0001EBDA
  1869 0001:0001EBEC  1870 0001:0001EBFC  1871 0001:0001EC0A  1874 0001:0001EC2E
  1875 0001:0001EC3D  1877 0001:0001EC52  1879 0001:0001EC7E  1883 0001:0001EC8B
  1884 0001:0001EC98  1885 0001:0001ECA5  1886 0001:0001ECB2  1887 0001:0001ECBF
  1888 0001:0001ECCC  1889 0001:0001ECD9  1890 0001:0001ECE6  1891 0001:0001ECF3
  1892 0001:0001ED00  1893 0001:0001ED0D  1894 0001:0001ED1A  1895 0001:0001ED27
  1896 0001:0001ED34  1897 0001:0001ED41  1898 0001:0001ED4E  1899 0001:0001ED5B
  1900 0001:0001ED68  1901 0001:0001ED75  1902 0001:0001ED82  1903 0001:0001ED90
  1904 0001:0001EDAC  1905 0001:0001EDB2  1908 0001:0001EDB8  1910 0001:0001EDBE
  1913 0001:0001EDC4  1915 0001:0001EDCA  1921 0001:0001EDDB  1923 0001:0001EE10
  1934 0001:0001F298  1935 0001:0001F2A4  1936 0001:0001F2B0  1937 0001:0001F2BE
  1938 0001:0001F2C8  1964 0001:0001F314  1966 0001:0001F327  1971 0001:0001F330
  1972 0001:0001F333  1974 0001:0001F337  1975 0001:0001F33E  1977 0001:0001F342
  1978 0001:0001F344  1989 0001:0001F348  1990 0001:0001F361  1991 0001:0001F3A1
  1994 0001:0001F3B4  1995 0001:0001F3BA  1996 0001:0001F3C6  1997 0001:0001F3D2
  2027 0001:0001F3D8  2028 0001:0001F3F2  2030 0001:0001F473  2035 0001:0001F49C
  2036 0001:0001F4A6  2037 0001:0001F4B5  2038 0001:0001F4C3  2039 0001:0001F4CD
  2041 0001:0001F4F1  2043 0001:0001F501  2049 0001:0001F508  2050 0001:0001F54C
  2052 0001:0001F554  2054 0001:0001F558  2056 0001:0001F569  2061 0001:0001F5D0
  2054 0001:0001F5D1  2064 0001:0001F5D4  2066 0001:0001F5E8  2068 0001:0001F5FE
  2069 0001:0001F617  2075 0001:0001F685  2066 0001:0001F686  2078 0001:0001F68D
  2079 0001:0001F6EB  2085 0001:0001F7DC  2086 0001:0001F7E8  2087 0001:0001F7EF
  2088 0001:0001F7F4  2089 0001:0001F800  2092 0001:0001F810  2094 0001:0001F81A
  2095 0001:0001F822  2099 0001:0001F830  2100 0001:0001F83D  2090 0001:0001F844
  2103 0001:0001F862  2105 0001:0001F87C  2107 0001:0001F88C  2112 0001:0001F894
  2113 0001:0001F8B1  2118 0001:0001F8B6  2121 0001:0001F8D1  2123 0001:0001F8FE
  2125 0001:0001F91B  2127 0001:0001F924  2128 0001:0001F92B  2129 0001:0001F942
  2130 0001:0001F949  2133 0001:0001F95E  2135 0001:0001F98A  2137 0001:0001F9A5
  2139 0001:0001F9B7  2141 0001:0001F9F3  2145 0001:0001FA1F  2146 0001:0001FA56
  2148 0001:0001FA90  2149 0001:0001FAC3  2150 0001:0001FAC8  2151 0001:0001FAD0
  2153 0001:0001FAD9  2154 0001:0001FAE0  2156 0001:0001FAE5  2157 0001:0001FAF3
  2159 0001:0001FAFB  2160 0001:0001FB0B  2161 0001:0001FB21  2163 0001:0001FB2B
  2165 0001:0001FB3B  2166 0001:0001FB44  2168 0001:0001FB5C  2170 0001:0001FB7E
  2171 0001:0001FB9B  2172 0001:0001FBA9  2174 0001:0001FBCE  2175 0001:0001FBF0
  2176 0001:0001FBFE  2178 0001:0001FC0B  2179 0001:0001FC12  2181 0001:0001FC2C
  2183 0001:0001FC42  2185 0001:0001FC6E  2187 0001:0001FC93  2189 0001:0001FCBF
  2192 0001:0001FCE4  2193 0001:0001FCF3  2194 0001:0001FCFA  2195 0001:0001FCFD
  2196 0001:0001FD1A  2197 0001:0001FD3F  2198 0001:0001FD4D  2199 0001:0001FD52
  2200 0001:0001FD5F  2202 0001:0001FD6F  2203 0001:0001FD75  2204 0001:0001FD89
  2205 0001:0001FDA9  2207 0001:0001FDAF  2208 0001:0001FDB5  2209 0001:0001FDBB
  2211 0001:0001FDC4  2200 0001:0001FDC7  2213 0001:0001FDD9  2216 0001:0001FDF1
  2217 0001:0001FE00  2218 0001:0001FE0B  2219 0001:0001FE11  2220 0001:0001FE1F
  2222 0001:0001FE24  2223 0001:0001FE2B  2226 0001:0001FE4D  2229 0001:0001FE6C
  2232 0001:0001FE8B  2233 0001:0001FE99  2234 0001:0001FEAF  2236 0001:0001FEF1
  2250 0001:0001FF48  2251 0001:0001FF54  2252 0001:0001FF72  2253 0001:0001FF7A
  2254 0001:0001FF7C  2256 0001:0001FF84  2257 0001:0001FFBF  2258 0001:0001FFC4
  2259 0001:0001FFCC  2260 0001:0001FFDC  2262 0001:0001FFE5  2263 0001:0001FFEC
  2265 0001:0001FFF1  2266 0001:0001FFFF  2267 0001:00020004  2268 0001:0002001C
  2267 0001:00020052  2270 0001:00020057  2272 0001:00020068  2273 0001:00020071
  2275 0001:00020089  2277 0001:000200AB  2278 0001:000200C8  2279 0001:000200D6
  2282 0001:0002010C  2283 0001:0002012E  2284 0001:0002013C  2286 0001:0002014A
  2287 0001:00020159  2288 0001:00020167  2289 0001:00020183  2291 0001:000201A1
  2292 0001:000201CB  2293 0001:000201D6  2295 0001:0002021C  2297 0001:00020248
  2298 0001:00020256  2299 0001:0002026F  2300 0001:0002027A  2301 0001:00020280
  2302 0001:0002028E  2303 0001:00020290  2305 0001:00020299  2306 0001:0002029E
  2307 0001:000202AA  2308 0001:000202C2  2309 0001:000202C8  2303 0001:000202D8
  2312 0001:000202EA  2314 0001:000202FC  2288 0001:000202FF  2316 0001:00020315
  2319 0001:00020332  2322 0001:00020351  2325 0001:00020370  2326 0001:0002037E
  2327 0001:00020394  2329 0001:000203CE  2371 0001:000203F8  2372 0001:0002040A
  2373 0001:0002042E  2377 0001:00020434  2378 0001:00020437  2383 0001:00020438
  2384 0001:0002043E  2385 0001:00020456  2386 0001:0002045C  2387 0001:00020467
  2388 0001:00020472  2389 0001:0002047D  2390 0001:00020488  2391 0001:0002048E
  2392 0001:00020499  2395 0001:0002051C  2396 0001:0002051F  2397 0001:00020524
  2398 0001:0002052C  2399 0001:00020534  2400 0001:0002053C  2401 0001:00020544
  2402 0001:00020549  2403 0001:00020551  2405 0001:000205A4  2405 0001:000205AB

Line numbers for EXMLBuilder(EXMLBuilder.pas) segment .text

    60 0001:0002069C    61 0001:000206A2    62 0001:000206C2    67 0001:000206C8
    68 0001:000206D4    70 0001:000206DD    71 0001:000206EB    72 0001:000206F4
    68 0001:000206F5    73 0001:000206FA    74 0001:00020711    77 0001:00020718
    78 0001:0002071E    79 0001:00020727    84 0001:0002072C    85 0001:00020748
    86 0001:00020794    89 0001:000207C0    90 0001:000207C3    91 0001:000207CB
    92 0001:000207CE    95 0001:000207D0    96 0001:000207FF    97 0001:0002080A
    98 0001:00020812    99 0001:0002081A   100 0001:00020822   101 0001:0002082A
   102 0001:0002082F   103 0001:00020872   106 0001:00020878   107 0001:00020883
   108 0001:0002088B   109 0001:000208A2   118 0001:000208A8   119 0001:000208B4
   120 0001:000208CA   121 0001:000208CF   123 0001:000208E9   124 0001:000208F4
   126 0001:00020904   127 0001:0002090F   132 0001:00020915   133 0001:00020921
   134 0001:0002092C   135 0001:0002094B   136 0001:00020975   137 0001:0002099F
   138 0001:000209AB   140 0001:000209AE   121 0001:000209B2   141 0001:000209B9
   142 0001:000209C3   147 0001:000209CC   148 0001:000209D4   149 0001:000209F0
   152 0001:00020A10   153 0001:00020A1C   154 0001:00020A2C   156 0001:00020A36
   157 0001:00020A42   159 0001:00020A4C   160 0001:00020A66   161 0001:00020A77
   157 0001:00020A78   162 0001:00020A7B   164 0001:00020A85   166 0001:00020AA0
   169 0001:00020B00   170 0001:00020B06   171 0001:00020B0D   172 0001:00020B16
   197 0001:00020B4C   197 0001:00020B53

Line numbers for ELogManager(ELogManager.pas) segment .text

   117 0001:00020C2C   118 0001:00020C30   119 0001:00020C32   120 0001:00020C39
   123 0001:00020C3D   126 0001:00020C5B   127 0001:00020C5D   129 0001:00020C5F
   121 0001:00020C60   131 0001:00020C67   133 0001:00020C6C   134 0001:00020C75
   136 0001:00020C80   137 0001:00020C89   140 0001:00020C8E   141 0001:00020C93
   142 0001:00020C9C   143 0001:00020C9F   146 0001:00020CB6   148 0001:00020CC3
   149 0001:00020CCF   150 0001:00020CD0   153 0001:00020CDE   155 0001:00020CF0
   156 0001:00020CFC   157 0001:00020CFD   159 0001:00020D0B   160 0001:00020D18
   161 0001:00020D19   144 0001:00020D1A   163 0001:00020D1F   164 0001:00020D29
   171 0001:00020D30   172 0001:00020D4D   173 0001:00020D55   174 0001:00020D5F
   176 0001:00020D6B   177 0001:00020D7A   179 0001:00020D86   180 0001:00020D90
   181 0001:00020D92   182 0001:00020D96   183 0001:00020DAB   185 0001:00020DB6
   186 0001:00020DD4   189 0001:00020DDC   190 0001:00020DE7   191 0001:00020DF3
   192 0001:00020E06   201 0001:00020E0C   202 0001:00020E0E   205 0001:00020E14
   207 0001:00020E19   212 0001:00020E51   213 0001:00020E53   216 0001:00020E55
   203 0001:00020E56   218 0001:00020E5E   220 0001:00020E60   221 0001:00020E7F
   223 0001:00020E9E   225 0001:00020EA0   226 0001:00020EA9   227 0001:00020EAB
   228 0001:00020EAF   230 0001:00020EC5   231 0001:00020ECE   233 0001:00020ED5
   235 0001:00020ED9   238 0001:00020EEA   241 0001:00020F0B   242 0001:00020F0E
   243 0001:00020F38   250 0001:00020F50   251 0001:00020F70   252 0001:00020F82
   253 0001:00020F8D   254 0001:00020F9B   255 0001:00020FA7   257 0001:00020FAC
   260 0001:00020FC3   262 0001:00020FD2   263 0001:00020FE3   266 0001:00020FE9
   269 0001:00021001   271 0001:0002102E   276 0001:0002104C   277 0001:00021067
   278 0001:00021072   280 0001:00021078   281 0001:000210A5   283 0001:000210C5
   284 0001:00021102   289 0001:00021114   290 0001:00021130   291 0001:00021135
   292 0001:00021155   293 0001:0002118C   319 0001:000211A4   320 0001:000211CF
   321 0001:000211D7   322 0001:000211EB   323 0001:000211FA   324 0001:00021208
   325 0001:00021228   327 0001:0002123C   328 0001:00021269   329 0001:00021291
   325 0001:00021292   330 0001:00021295   332 0001:000212AD   334 0001:000212DF
   336 0001:00021318   337 0001:0002133A   338 0001:0002133E   339 0001:00021362
   341 0001:00021366   342 0001:0002137D   343 0001:0002138F   344 0001:0002139C
   345 0001:000213B4   347 0001:000213E8   349 0001:00021418   350 0001:0002143D
   351 0001:00021444   353 0001:0002145A   354 0001:0002145C   356 0001:00021461
   358 0001:00021489   359 0001:0002148C   361 0001:0002148E   354 0001:0002148F
   363 0001:00021494   351 0001:00021495   364 0001:000214BA   367 0001:000214C4
   368 0001:000214C8   369 0001:000214CE   370 0001:000214E5   371 0001:000214F1
   372 0001:000214FB   373 0001:0002150E   383 0001:00021514   384 0001:0002151D
   385 0001:00021526   386 0001:00021535   385 0001:00021541   387 0001:00021544
   389 0001:00021554   390 0001:00021581   392 0001:0002159F   393 0001:000215B0
   394 0001:000215D7   396 0001:000215DF   397 0001:000215F0   399 0001:000215F9
   400 0001:000215FC   401 0001:000215FF   404 0001:00021606   406 0001:00021628
   410 0001:00021692   411 0001:00021695   402 0001:00021696   413 0001:000216A6
   414 0001:000216B6   415 0001:000216C3   416 0001:000216F0   418 0001:00021716
   423 0001:0002172C   424 0001:0002172E   425 0001:0002173E   427 0001:00021748
   428 0001:0002174F   430 0001:00021754   431 0001:00021782   432 0001:000217A9
   434 0001:000217AD   435 0001:000217BE   436 0001:000217C3   438 0001:000217C6
   428 0001:000217C7   439 0001:000217CC   441 0001:000217D6   442 0001:000217E8
   444 0001:000217EC   445 0001:000217EF   446 0001:0002182E   447 0001:00021853
   452 0001:00021886   459 0001:000218FC   460 0001:00021927   461 0001:0002192F
   463 0001:00021947   464 0001:00021954   465 0001:0002197B   467 0001:00021983
   469 0001:00021998   471 0001:0002199A   472 0001:000219AE   474 0001:00021A15
   477 0001:00021A19   479 0001:00021A42   481 0001:00021A54   482 0001:00021A64
   483 0001:00021A69   484 0001:00021A74   486 0001:00021A76   475 0001:00021A77
   488 0001:00021A80   490 0001:00021A97   491 0001:00021AA0   492 0001:00021AA9
   493 0001:00021ABB   495 0001:00021ACA   496 0001:00021AE0   488 0001:00021AE1
   497 0001:00021AE4   499 0001:00021B1E   503 0001:00021B68   504 0001:00021B70
   507 0001:00021B74   508 0001:00021B7A   509 0001:00021B84   519 0001:00021B88
   520 0001:00021B92   521 0001:00021BA5   522 0001:00021BAB   523 0001:00021BAF
   522 0001:00021BC3   525 0001:00021BC8   526 0001:00021BCC   525 0001:00021BDF
   527 0001:00021BE4   532 0001:00021C1C   533 0001:00021C25   534 0001:00021C31
   535 0001:00021C44   538 0001:00021C4A   540 0001:00021C59   541 0001:00021C5C
   543 0001:00021C6D   544 0001:00021C85   545 0001:00021C89   547 0001:00021C9A
   549 0001:00021CA3   550 0001:00021CAA   555 0001:00021CC0   556 0001:00021CC9
   557 0001:00021CD5   558 0001:00021CE8   562 0001:00021CEE   561 0001:00021CEF
   563 0001:00021CFD   564 0001:00021D0D   565 0001:00021D11   567 0001:00021D22
   570 0001:00021D2B   571 0001:00021D32   576 0001:00021D58   577 0001:00021D7B
   578 0001:00021D88   579 0001:00021D9A   582 0001:00021DCE   583 0001:00021DDD
   584 0001:00021DED   585 0001:00021DF1   587 0001:00021E02   589 0001:00021E0B
   590 0001:00021E2F   595 0001:00021E60   596 0001:00021E81   597 0001:00021E88
   599 0001:00021EA8   600 0001:00021EB5   601 0001:00021EC7   604 0001:00021EFB
   605 0001:00021F0A   606 0001:00021F1A   607 0001:00021F1E   609 0001:00021F2F
   611 0001:00021F38   612 0001:00021F61   617 0001:00021F9C   618 0001:00021FBF
   619 0001:00021FC6   621 0001:00021FE2   622 0001:00021FEF   623 0001:00022001
   624 0001:00022014   625 0001:00022024   626 0001:0002204F   631 0001:00022080
   632 0001:000220A3   633 0001:000220B0   634 0001:000220B5   635 0001:000220D4
   637 0001:000220E5   638 0001:000220F4   639 0001:000220F6   640 0001:000220FD
   639 0001:0002210E   641 0001:00022113   642 0001:00022117   644 0001:00022128
   645 0001:0002212F   646 0001:00022168   651 0001:00022198   652 0001:000221BA
   653 0001:000221C7   655 0001:000221DD   656 0001:000221E2   655 0001:000221F6
   657 0001:000221F9   659 0001:00022201   660 0001:00022206   659 0001:0002221A
   661 0001:0002221D   666 0001:00022223   664 0001:00022224   667 0001:00022259
   668 0001:0002226D   669 0001:00022271   671 0001:00022288   674 0001:00022292
   676 0001:000222B7   687 0001:000222FC   688 0001:0002231A   689 0001:0002234F
   690 0001:0002237A   691 0001:0002238F   692 0001:000223AE   693 0001:000223CD
   694 0001:00022401   696 0001:00022460   697 0001:0002248B   698 0001:00022490
   699 0001:00022495   700 0001:000224A9   701 0001:000224B7   702 0001:000224BB
   703 0001:000224BF   704 0001:000224CE   705 0001:000224DC   706 0001:000224F3
   709 0001:000224FD   711 0001:00022503   712 0001:00022513   713 0001:00022520
   714 0001:00022537   715 0001:0002253F   716 0001:00022547   717 0001:0002254F
   718 0001:00022557   719 0001:0002255B   723 0001:00022561   724 0001:00022579
   725 0001:00022588   726 0001:000225C0   728 0001:000225C8   729 0001:000225D5
   730 0001:000225E4   731 0001:000225F8   732 0001:00022608   734 0001:0002260E
   735 0001:00022623   736 0001:00022633   738 0001:00022643   739 0001:00022662
   740 0001:0002267B   741 0001:0002268B   742 0001:0002269B   743 0001:000226AB
   746 0001:000226B1   748 0001:000226B7   749 0001:000226BB   750 0001:000226C2
   752 0001:000226C8   754 0001:000226E0   755 0001:000226E1   757 0001:000226ED
   758 0001:000226F4   707 0001:000226F8   762 0001:00022716   764 0001:00022726
   766 0001:0002273E   768 0001:00022785   779 0001:00022814   780 0001:0002281A
   781 0001:0002283A   788 0001:0002284C   789 0001:00022851   790 0001:00022853
   791 0001:00022863   793 0001:00022876   794 0001:00022878   795 0001:0002287A
   790 0001:0002287B   796 0001:00022880   798 0001:00022884   799 0001:000228B0
   800 0001:000228BF   801 0001:000228CE   802 0001:000228E2   803 0001:00022910
   804 0001:00022915   805 0001:00022922   806 0001:00022930   807 0001:00022934
   808 0001:00022938   809 0001:00022943   811 0001:00022962   812 0001:0002296A
   813 0001:00022988   814 0001:000229BF   816 0001:000229D0   817 0001:000229E0
   818 0001:000229F0   820 0001:00022A00   822 0001:00022A36   823 0001:00022A4C
   824 0001:00022A67   825 0001:00022A72   826 0001:00022A93   827 0001:00022AAF
   828 0001:00022ACD   829 0001:00022ADA   830 0001:00022AF5   831 0001:00022B00
   832 0001:00022B21   833 0001:00022B30   835 0001:00022B34   836 0001:00022B48
   839 0001:00022B63   841 0001:00022B69   842 0001:00022B84   843 0001:00022B8F
   846 0001:00022BB0   849 0001:00022BD4   850 0001:00022BE4   851 0001:00022BF4
   854 0001:00022C04   856 0001:00022C1D   857 0001:00022C2C   858 0001:00022C48
   859 0001:00022C67   860 0001:00022C76   861 0001:00022C85   863 0001:00022C94
   864 0001:00022CB3   866 0001:00022CB7   867 0001:00022CDB   871 0001:00022D19
   872 0001:00022D29   874 0001:00022D31   875 0001:00022D40   879 0001:00022D54
   881 0001:00022D6B   882 0001:00022D8D   883 0001:00022DCC   884 0001:00022DDC
   886 0001:00022DE2   888 0001:00022DE8   889 0001:00022DF8   891 0001:00022DFE
   892 0001:00022E0E   894 0001:00022E14   895 0001:00022E24   896 0001:00022E66
   897 0001:00022EAA   898 0001:00022EEE   899 0001:00022F0F   901 0001:00022F23
   903 0001:00022F27   809 0001:00022F2A   904 0001:00022F33   906 0001:00022F4B
   907 0001:00022F53   908 0001:00022F5B   910 0001:00022F9D   918 0001:0002318C
   919 0001:000231B7   920 0001:000231C6   921 0001:000231D5   922 0001:000231E9
   923 0001:000231F5   924 0001:00023203   925 0001:0002320E   927 0001:0002322B
   928 0001:00023233   929 0001:00023250   930 0001:00023286   931 0001:00023295
   932 0001:000232B1   933 0001:000232D0   934 0001:000232EF   935 0001:0002330E
   936 0001:0002332D   938 0001:0002333A   939 0001:00023359   941 0001:0002337A
   942 0001:00023399   925 0001:0002339A   943 0001:000233A3   945 0001:000233BB
   946 0001:000233C3   947 0001:000233CB   949 0001:00023405   957 0001:000234D0
   958 0001:000234FB   959 0001:0002350A   960 0001:00023519   961 0001:0002352D
   962 0001:00023539   963 0001:00023547   964 0001:00023552   966 0001:0002356F
   967 0001:00023577   968 0001:00023594   969 0001:000235CA   970 0001:000235D9
   971 0001:000235F5   972 0001:00023614   973 0001:00023633   974 0001:00023652
   975 0001:00023671   976 0001:00023690   977 0001:000236AF   978 0001:000236CE
   964 0001:000236CF   979 0001:000236D8   981 0001:000236F0   982 0001:000236F8
   983 0001:00023700   985 0001:0002373A   993 0001:00023818   994 0001:00023844
   995 0001:00023853   996 0001:00023862   997 0001:00023876   998 0001:00023882
   999 0001:00023890  1000 0001:0002389B  1002 0001:000238B6  1003 0001:000238C5
  1004 0001:000238DE  1006 0001:00023903  1007 0001:0002390B  1008 0001:00023913
  1012 0001:0002392B  1013 0001:00023941  1014 0001:00023950  1016 0001:00023954
  1017 0001:0002396A  1021 0001:00023974  1022 0001:0002398A  1025 0001:0002399E
  1026 0001:000239AD  1027 0001:000239BC  1028 0001:000239CB  1000 0001:000239CE
  1029 0001:000239D5  1031 0001:000239ED  1032 0001:000239F5  1033 0001:000239FD
  1035 0001:00023A3C  1046 0001:00023AA4  1047 0001:00023ACF  1048 0001:00023ADE
  1049 0001:00023AF2  1050 0001:00023AFE  1051 0001:00023B0C  1053 0001:00023B21
  1054 0001:00023B2C  1055 0001:00023B52  1056 0001:00023B78  1057 0001:00023B9E
  1058 0001:00023BC4  1059 0001:00023BEA  1060 0001:00023C10  1061 0001:00023C36
  1062 0001:00023C5C  1063 0001:00023C6B  1064 0001:00023C89  1065 0001:00023CA7
  1066 0001:00023CC5  1067 0001:00023CE3  1068 0001:00023D01  1069 0001:00023D1F
  1070 0001:00023D3D  1071 0001:00023D5B  1072 0001:00023D6B  1074 0001:00023D86
  1075 0001:00023D95  1076 0001:00023DB8  1077 0001:00023DDB  1078 0001:00023DEA
  1079 0001:00023DF9  1072 0001:00023DFA  1080 0001:00023DFF  1081 0001:00023E0F
  1083 0001:00023E2A  1084 0001:00023E39  1085 0001:00023E5C  1086 0001:00023E7F
  1087 0001:00023EA8  1088 0001:00023EB7  1089 0001:00023EC6  1090 0001:00023ED5
  1081 0001:00023ED6  1092 0001:00023EDF  1094 0001:00023EF7  1095 0001:00023EFF
  1097 0001:00023F41  1102 0001:00024050  1103 0001:00024070  1105 0001:0002408B
  1106 0001:0002409F  1107 0001:000240AD  1108 0001:000240C9  1110 0001:000240E0
  1113 0001:000240F0  1114 0001:00024119  1120 0001:00024154  1121 0001:0002417F
  1122 0001:0002418E  1123 0001:0002419C  1128 0001:0002423B  1129 0001:00024251
  1128 0001:0002427C  1130 0001:0002427F  1132 0001:00024297  1134 0001:000242C9
  1141 0001:00024314  1142 0001:00024336  1143 0001:0002433E  1144 0001:0002434D
  1145 0001:0002435B  1146 0001:0002436D  1145 0001:00024385  1147 0001:00024388
  1148 0001:000243AD  1149 0001:000243C3  1148 0001:000243EE  1150 0001:000243F1
  1152 0001:00024409  1154 0001:00024443  1159 0001:00024478  1160 0001:0002449C
  1161 0001:000244AB  1162 0001:000244B9  1163 0001:000244D1  1165 0001:00024513
  1167 0001:00024545  1185 0001:0002454C  1186 0001:0002456B  1187 0001:0002457A
  1188 0001:00024588  1189 0001:0002459D  1191 0001:000245B4  1193 0001:000245E1
  1198 0001:000245E8  1199 0001:000245FA  1200 0001:000245FD  1201 0001:0002461B
  1204 0001:00024620  1205 0001:00024623  1206 0001:0002462B  1207 0001:00024631
  1208 0001:00024636  1211 0001:00024638  1212 0001:0002463E  1213 0001:00024641
  1214 0001:00024646  1215 0001:00024666  1216 0001:00024686  1223 0001:000246B0
  1224 0001:000246ED  1225 0001:000246F3  1227 0001:000246FD  1229 0001:00024743
  1231 0001:00024759  1234 0001:00024790  1235 0001:000247A6  1236 0001:000247B5
  1237 0001:000247C3  1238 0001:000247CE  1240 0001:000247E0  1241 0001:0002480D
  1242 0001:0002483B  1238 0001:0002483C  1243 0001:0002483F  1244 0001:0002484A
  1246 0001:0002488B  1248 0001:0002489B  1251 0001:000248EB  1262 0001:0002493C
  1263 0001:0002494D  1264 0001:00024956  1265 0001:00024964  1266 0001:00024970
  1265 0001:0002497E  1267 0001:00024981  1268 0001:0002499B  1274 0001:000249BC
  1275 0001:000249EF  1276 0001:000249F3  1277 0001:000249FA  1278 0001:00024A03
  1279 0001:00024A10  1280 0001:00024A20  1283 0001:00024A29  1284 0001:00024A3D
  1285 0001:00024A49  1286 0001:00024A62  1287 0001:00024A6E  1281 0001:00024A70
  1289 0001:00024AB1  1291 0001:00024ABA  1294 0001:00024AC3  1295 0001:00024AD7
  1296 0001:00024AE3  1297 0001:00024AFC  1298 0001:00024B08  1292 0001:00024B0A
  1300 0001:00024B25  1302 0001:00024B2E  1303 0001:00024B35  1306 0001:00024B5E
  1308 0001:00024B80  1309 0001:00024BA7  1310 0001:00024BB6  1311 0001:00024BC4
  1312 0001:00024BCF  1313 0001:00024BD9  1314 0001:00024BDE  1318 0001:00024BEF
  1319 0001:00024BFA  1320 0001:00024C0C  1321 0001:00024C17  1319 0001:00024C1A
  1323 0001:00024C22  1324 0001:00024C2E  1323 0001:00024C5F  1325 0001:00024C62
  1326 0001:00024C70  1327 0001:00024C7E  1326 0001:00024CAC  1328 0001:00024CAF
  1315 0001:00024CB6  1331 0001:00024CD6  1332 0001:00024CE9  1334 0001:00024D01
  1336 0001:00024D33  1338 0001:00024D78  1338 0001:00024D7F

Line numbers for EListView(EListView.pas) segment .text

   155 0001:00024E28   156 0001:00024E31   157 0001:00024E3F   158 0001:00024E4C
   167 0001:00024E50   168 0001:00024E61   169 0001:00024E6C   170 0001:00024E73
   172 0001:00024E80   173 0001:00024E86   176 0001:00024E8C   177 0001:00024E98
   178 0001:00024EA4   179 0001:00024EB0   184 0001:00024EBC   187 0001:00024ECF
   189 0001:00024EDF   190 0001:00024EED   193 0001:00024EFB   194 0001:00024F0B
   195 0001:00024F1B   196 0001:00024F2B   199 0001:00024F3B   202 0001:00024F4B
   206 0001:00024F64   210 0001:00024F71   213 0001:00024F8A   216 0001:00024F94
   219 0001:00024FB0   222 0001:00024FD0   225 0001:00024FEC   228 0001:00025005
   231 0001:0002501E   234 0001:0002503E   237 0001:00025057   238 0001:0002506A
   239 0001:0002507D   240 0001:00025090   243 0001:000250A3   244 0001:000250AC
   245 0001:000250B5   246 0001:000250BE   247 0001:000250C7   248 0001:000250CD
   251 0001:000250D8   254 0001:000250E0   257 0001:000250E8   262 0001:000250F0
   263 0001:0002510F   264 0001:00025118   265 0001:0002511C   266 0001:00025121
   267 0001:00025124   268 0001:00025129   269 0001:00025131   270 0001:0002513D
   271 0001:00025142   272 0001:00025147   273 0001:00025157   274 0001:00025167
   275 0001:00025177   276 0001:00025187   277 0001:00025197   278 0001:000251A7
   279 0001:000251BE   280 0001:000251CA   281 0001:000251D9   282 0001:000251E8
   283 0001:000251F7   285 0001:0002520B   286 0001:00025218   287 0001:00025225
   288 0001:00025232   289 0001:0002523F   290 0001:0002524C   291 0001:00025272
   296 0001:000252AC   297 0001:000252B8   298 0001:000252C1   299 0001:000252CA
   300 0001:000252D3   301 0001:000252DC   302 0001:000252E5   303 0001:000252EE
   304 0001:000252F7   305 0001:00025300   306 0001:00025309   307 0001:0002531B
   308 0001:00025328   309 0001:0002533F   316 0001:00025344   317 0001:0002539B
   319 0001:000253AC   320 0001:000253BF   322 0001:000253C4   323 0001:000253CC
   324 0001:000253DB   325 0001:000253F6   326 0001:000253FC   327 0001:00025402
   328 0001:0002542D   329 0001:00025433   330 0001:00025437   331 0001:0002543B
   332 0001:00025449   333 0001:00025457   335 0001:00025466   336 0001:00025492
   338 0001:0002549B   339 0001:000254A0   340 0001:000254AB   341 0001:000254B4
   342 0001:000254C4   344 0001:000254CD   345 0001:000254D8   346 0001:00025522
   352 0001:00025534   355 0001:0002555B   356 0001:00025562   357 0001:00025567
   358 0001:00025570   359 0001:00025575   360 0001:0002557A   363 0001:00025580
   367 0001:0002558F   368 0001:00025594   370 0001:000255AE   371 0001:000255B1
   372 0001:000255B6   374 0001:000255D1   377 0001:000255E8   381 0001:000255FF
   382 0001:00025602   384 0001:0002561D   385 0001:00025636   377 0001:00025637
   386 0001:0002565C   390 0001:00025664   391 0001:00025675   395 0001:00025678
   396 0001:00025688   408 0001:0002568C   409 0001:0002568F   410 0001:00025697
   411 0001:000256A0   413 0001:000256CF   415 0001:000256D4   416 0001:000256EA
   417 0001:000256FB   418 0001:00025701   419 0001:00025707   420 0001:00025714
   422 0001:00025716   424 0001:00025720   426 0001:0002573C   428 0001:00025744
   429 0001:00025748   431 0001:00025755   432 0001:0002575F   435 0001:0002576F
   436 0001:0002577F   437 0001:0002578F   439 0001:0002579F   443 0001:000257B1
   444 0001:000257C7   445 0001:000257C8   447 0001:000257E8   433 0001:000257E9
   450 0001:00025815   452 0001:00025827   454 0001:00025835   460 0001:00025840
   461 0001:00025847   462 0001:00025850   463 0001:00025852   464 0001:0002585A
   465 0001:00025867   466 0001:00025874   467 0001:0002587D   472 0001:00025884
   473 0001:00025888   474 0001:0002589D   475 0001:000258A4   478 0001:000258A8
   479 0001:000258AE   480 0001:000258B7   485 0001:000258BC   486 0001:000258BF
   487 0001:000258C6   488 0001:000258CA   489 0001:000258D0   490 0001:000258E3
   491 0001:000258E7   511 0001:000258EC   512 0001:000258F4   513 0001:00025907
   514 0001:0002590D   515 0001:00025911   517 0001:00025936   518 0001:00025959
   523 0001:00025960   524 0001:00025968   525 0001:0002597B   526 0001:00025981
   527 0001:00025985   529 0001:000259AA   530 0001:000259CD   535 0001:000259D4
   536 0001:000259DC   537 0001:000259EF   538 0001:000259F3   539 0001:000259FC
   540 0001:00025A1F   545 0001:00025A28   546 0001:00025A30   547 0001:00025A43
   548 0001:00025A49   549 0001:00025A50   550 0001:00025A73   552 0001:00025A7C
   553 0001:00025A9B   554 0001:00025AA5   555 0001:00025AA7   557 0001:00025AB7
   558 0001:00025AD8   559 0001:00025AF9   560 0001:00025B1A   561 0001:00025B3B
   562 0001:00025B5C   563 0001:00025B6D   565 0001:00025B77   566 0001:00025B8D
   567 0001:00025BA4   568 0001:00025BB7   570 0001:00025BC1   571 0001:00025BC9
   573 0001:00025C0A   574 0001:00025C16   576 0001:00025C31   577 0001:00025C3A
   578 0001:00025C44   579 0001:00025C48   580 0001:00025C5F   581 0001:00025C62
   582 0001:00025C71   583 0001:00025C7A   584 0001:00025C87   585 0001:00025C93
   586 0001:00025C9F   587 0001:00025CB8   589 0001:00025CED   574 0001:00025CEE
   590 0001:00025CF7   591 0001:00025D0A   592 0001:00025D1D   596 0001:00025D52
   597 0001:00025D55   598 0001:00025D5A   601 0001:00025D68   602 0001:00025D6D
   604 0001:00025D81   605 0001:00025D88   607 0001:00025D8D   608 0001:00025D94
   609 0001:00025DA6   610 0001:00025DAA   611 0001:00025DAD   612 0001:00025DC0
   613 0001:00025DDB   615 0001:00025E05   616 0001:00025E15   617 0001:00025E28
   618 0001:00025E2C   619 0001:00025E3D   620 0001:00025E46   622 0001:00025E8B
   624 0001:00025E94   625 0001:00025E9D   626 0001:00025EA0   627 0001:00025EB4
   628 0001:00025EB6   652 0001:00025EBC   653 0001:00025EBF   654 0001:00025EE6
   659 0001:00025EE8   660 0001:00025EF2   661 0001:00025EF4   662 0001:00025EFB
   664 0001:00025F18   665 0001:00025F2A   666 0001:00025F2E   667 0001:00025F35
   670 0001:00025F3C   672 0001:00025F44   673 0001:00025F4F   674 0001:00025F61
   675 0001:00025F7F   676 0001:00025F94   677 0001:00025F9E   678 0001:00025FAC
   680 0001:00025FB9   681 0001:00025FC9   682 0001:00025FEE   683 0001:00025FF6
   685 0001:00026009   687 0001:0002601C   688 0001:0002602B   689 0001:00026032
   690 0001:00026041   694 0001:00026054   695 0001:00026065   697 0001:00026098
   697 0001:0002609F

Line numbers for EDisAsm(EDisAsm.pas) segment .text

   428 0001:0002B6F4   429 0001:0002B712   430 0001:0002B716   432 0001:0002B735
   433 0001:0002B772   447 0001:0002B794   448 0001:0002B797   449 0001:0002B7A7
   450 0001:0002B7B0   453 0001:0002B7B4   454 0001:0002B7B7   455 0001:0002B7C8
   456 0001:0002B7D1   459 0001:0002B7D4   460 0001:0002B7D7   461 0001:0002B7E7
   462 0001:0002B7EF   467 0001:0002B7F4   468 0001:0002B815   469 0001:0002B821
   470 0001:0002B829   471 0001:0002B84B   472 0001:0002B857   473 0001:0002B87D
   474 0001:0002B8E2   483 0001:0002B8FC   484 0001:0002B8FF   486 0001:0002B908
   487 0001:0002B918   489 0001:0002B91F   490 0001:0002B925   499 0001:0002B928
   500 0001:0002B92B   502 0001:0002B934   503 0001:0002B944   505 0001:0002B94B
   506 0001:0002B951   527 0001:0002B954   528 0001:0002B977   529 0001:0002B983
   532 0001:0002B9D5   533 0001:0002B9E1   535 0001:0002B9EF   536 0001:0002B9F6
   538 0001:0002BA52   551 0001:0002BA68   552 0001:0002BA85   553 0001:0002BA9A
   554 0001:0002BAB4   557 0001:0002BAD1   558 0001:0002BB06   559 0001:0002BB17
   560 0001:0002BB25   561 0001:0002BB33   562 0001:0002BB41   563 0001:0002BB4F
   564 0001:0002BB58   566 0001:0002BB66   567 0001:0002BB8A   568 0001:0002BB98
   570 0001:0002BBA4   572 0001:0002BBB3   573 0001:0002BBC2   577 0001:0002BBD2
   578 0001:0002BC06   579 0001:0002BC14   580 0001:0002BC22   581 0001:0002BC30
   582 0001:0002BC3E   583 0001:0002BC4C   584 0001:0002BC5A   586 0001:0002BC66
   587 0001:0002BC6B   590 0001:0002BC77   592 0001:0002BC80   595 0001:0002BC93
   596 0001:0002BC9C   600 0001:0002BCAE   601 0001:0002BCBA   605 0001:0002BCCC
   606 0001:0002BCD8   610 0001:0002BCEA   611 0001:0002BCF6   614 0001:0002BD23
   618 0001:0002BE4C   619 0001:0002BE6A   620 0001:0002BE7C   623 0001:0002BE96
   625 0001:0002BE9C   626 0001:0002BEAA   629 0001:0002BEAF   632 0001:0002BECF
   633 0001:0002BEDB   636 0001:0002BEF7   637 0001:0002BF0F   639 0001:0002BF19
   642 0001:0002BF29   644 0001:0002BF3C   645 0001:0002BF67   646 0001:0002BF7A
   647 0001:0002BFA5   653 0001:0002BFAA   655 0001:0002BFB5   656 0001:0002BFE0
   657 0001:0002BFF3   658 0001:0002C01E   663 0001:0002C023   664 0001:0002C033
   665 0001:0002C067   666 0001:0002C078   667 0001:0002C089   668 0001:0002C09A
   669 0001:0002C0AB   670 0001:0002C0BC   671 0001:0002C0CD   672 0001:0002C0DE
   676 0001:0002C0EF   677 0001:0002C123   678 0001:0002C131   679 0001:0002C13F
   680 0001:0002C14D   681 0001:0002C15B   682 0001:0002C171   683 0001:0002C17F
   684 0001:0002C18D   686 0001:0002C199   688 0001:0002C19E   689 0001:0002C1A7
   694 0001:0002C1B4   696 0001:0002C1C3   700 0001:0002C1D1   701 0001:0002C1E1
   702 0001:0002C206   705 0001:0002C211   709 0001:0002C23C   710 0001:0002C24B
   711 0001:0002C298   715 0001:0002C3BC   716 0001:0002C3EB   718 0001:0002C3F2
   720 0001:0002C45B   721 0001:0002C464   723 0001:0002C473   725 0001:0002C482
   727 0001:0002C491   728 0001:0002C49A   730 0001:0002C4A6   732 0001:0002C4B2
   734 0001:0002C4BE   736 0001:0002C4CF   738 0001:0002C4DB   740 0001:0002C4E7
   742 0001:0002C4F5   744 0001:0002C501   746 0001:0002C50D   749 0001:0002C514
   751 0001:0002C57C   754 0001:0002C581   755 0001:0002C58A   757 0001:0002C59E
   758 0001:0002C5A5   759 0001:0002C5AE   761 0001:0002C5CA   765 0001:0002C5FF
   768 0001:0002C610   771 0001:0002C615   772 0001:0002C640   776 0001:0002C64C
   779 0001:0002C65D   782 0001:0002C662   783 0001:0002C68D   787 0001:0002C699
   791 0001:0002C6AA   799 0001:0002C6C5   800 0001:0002C6ED   806 0001:0002C6F9
   807 0001:0002C70C   808 0001:0002C71B   809 0001:0002C72A   810 0001:0002C738
   812 0001:0002C73D   813 0001:0002C74E   814 0001:0002C75A   815 0001:0002C789
   820 0001:0002C7D1   821 0001:0002C7D8   822 0001:0002C7E3   821 0001:0002C80B
   823 0001:0002C810   824 0001:0002C81E   825 0001:0002C82A   827 0001:0002C859
   833 0001:0002C8A1   834 0001:0002C8B4   835 0001:0002C8C3   836 0001:0002C8D2
   837 0001:0002C8E0   840 0001:0002C8E5   842 0001:0002C8F6   844 0001:0002C90C
   845 0001:0002C942   847 0001:0002C985   849 0001:0002C99F   850 0001:0002C9D5
   855 0001:0002CA1D   856 0001:0002CA26   859 0001:0002CA74   860 0001:0002CAB0
   861 0001:0002CAC0   867 0001:0002CAE4   868 0001:0002CB0F   872 0001:0002CB1B
   875 0001:0002CB2B   876 0001:0002CB56   880 0001:0002CB62   883 0001:0002CB7D
   884 0001:0002CBB9   885 0001:0002CBC7   886 0001:0002CBD5   887 0001:0002CBE3
   888 0001:0002CBF1   889 0001:0002CBFF   895 0001:0002CC0D   896 0001:0002CC38
   900 0001:0002CC7B   905 0001:0002CD58   906 0001:0002CD64   908 0001:0002CDC0
   909 0001:0002CDC5   911 0001:0002CDE7   912 0001:0002CDF5   914 0001:0002CE2D
   917 0001:0002CE60   918 0001:0002CE69   920 0001:0002CE9D   925 0001:0002CEAB
   926 0001:0002CEB2   927 0001:0002CEE5   933 0001:0002CF07   934 0001:0002CF11
   935 0001:0002CF1D   937 0001:0002CF27   941 0001:0002CF49   942 0001:0002CF52
   943 0001:0002CF66   944 0001:0002CF77   945 0001:0002CF88   948 0001:0002CF99
   949 0001:0002CFAD   950 0001:0002CFBE   951 0001:0002CFCF   957 0001:0002CFDD
   958 0001:0002CFE4   963 0001:0002CFED   967 0001:0002D01F   969 0001:0002D04F
   973 0001:0002D090   974 0001:0002D0CA   975 0001:0002D0D1   976 0001:0002D0D6
   977 0001:0002D0DD   978 0001:0002D0E1   979 0001:0002D0E8   980 0001:0002D0EC
   981 0001:0002D0F0   982 0001:0002D0F4   983 0001:0002D0F9   984 0001:0002D0FE
   985 0001:0002D103   986 0001:0002D11D   988 0001:0002D127   991 0001:0002D13E
   992 0001:0002D167   996 0001:0002D177   997 0001:0002D199  1002 0001:0002D1A9
  1003 0001:0002D1AB  1004 0001:0002D1B3  1006 0001:0002D1C3   987 0001:0002D1C4
  1009 0001:0002D1D4  1011 0001:0002D1DE  1014 0001:0002D1EC  1015 0001:0002D201
  1016 0001:0002D20B  1017 0001:0002D24E  1018 0001:0002D262  1019 0001:0002D276
  1021 0001:0002D28A  1022 0001:0002D29E  1024 0001:0002D2B2  1029 0001:0002D2C6
  1030 0001:0002D2D5  1031 0001:0002D2E0  1030 0001:0002D313  1032 0001:0002D317
  1035 0001:0002D347  1037 0001:0002D357  1010 0001:0002D358  1039 0001:0002D392
  1041 0001:0002D4CC  1041 0001:0002D4D3

Line numbers for ExceptionLog(ExceptionLog.pas) segment .text

  1225 0001:0002DF90  1228 0001:0002DF98  1230 0001:0002DFA0  1233 0001:0002DFA8
  1240 0001:0002DFB0  1241 0001:0002DFC8  1242 0001:0002DFD4  1243 0001:0002DFF5
  1249 0001:0002DFFC  1250 0001:0002E00F  1261 0001:0002E010  1262 0001:0002E01E
  1264 0001:0002E022  1265 0001:0002E030  1267 0001:0002E04E  1270 0001:0002E05D
  1271 0001:0002E067  1272 0001:0002E075  1273 0001:0002E083  1275 0001:0002E094
  1279 0001:0002E0A5  1280 0001:0002E0AD  1281 0001:0002E0B5  1282 0001:0002E0BD
  1283 0001:0002E0C5  1284 0001:0002E0C9  1286 0001:0002E0CB  1273 0001:0002E0CE
  1288 0001:0002E0E0  1291 0001:0002E0F6  1293 0001:0002E10B  1302 0001:0002E114
  1303 0001:0002E11D  1304 0001:0002E129  1305 0001:0002E133  1306 0001:0002E13D
  1307 0001:0002E147  1308 0001:0002E151  1309 0001:0002E15B  1310 0001:0002E165
  1312 0001:0002E168  1313 0001:0002E179  1314 0001:0002E187  1316 0001:0002E1AB
  1319 0001:0002E1BA  1320 0001:0002E1C4  1321 0001:0002E1D2  1322 0001:0002E1E0
  1324 0001:0002E1E9  1325 0001:0002E1FD  1329 0001:0002E20C  1330 0001:0002E218
  1334 0001:0002E22D  1337 0001:0002E246  1339 0001:0002E258  1345 0001:0002E264
  1346 0001:0002E27C  1350 0001:0002E280  1351 0001:0002E292  1352 0001:0002E299
  1360 0001:0002E29C  1361 0001:0002E2C1  1363 0001:0002E2D7  1364 0001:0002E2E9
  1365 0001:0002E2F7  1367 0001:0002E2FB  1369 0001:0002E2FE  1368 0001:0002E2FF
  1370 0001:0002E313  1371 0001:0002E31E  1373 0001:0002E332  1376 0001:0002E34E
  1377 0001:0002E375  1380 0001:0002E388  1381 0001:0002E39E  1382 0001:0002E3D0
  1423 0001:0002E3D4  1424 0001:0002E3DA  1425 0001:0002E3E3  1464 0001:0002E3E8
  1465 0001:0002E419  1466 0001:0002E41D  1468 0001:0002E429  1469 0001:0002E455
  1472 0001:0002E460  1473 0001:0002E483  1474 0001:0002E4AD  1479 0001:0002E4B4
  1480 0001:0002E4BD  1481 0001:0002E4C8  1482 0001:0002E4D6  1488 0001:0002E4E0
  1489 0001:0002E501  1490 0001:0002E509  1492 0001:0002E50D  1493 0001:0002E511
  1494 0001:0002E523  1496 0001:0002E52A  1497 0001:0002E544  1500 0001:0002E54A
  1502 0001:0002E550  1503 0001:0002E560  1504 0001:0002E564  1493 0001:0002E565
  1506 0001:0002E585  1511 0001:0002E598  1512 0001:0002E5A1  1513 0001:0002E5AA
  1514 0001:0002E5B9  1513 0001:0002E5C5  1515 0001:0002E5C8  1522 0001:0002E5D8
  1523 0001:0002E5E1  1524 0001:0002E5EA  1525 0001:0002E60C  1527 0001:0002E620
  1528 0001:0002E651  1529 0001:0002E658  1530 0001:0002E676  1531 0001:0002E694
  1532 0001:0002E6B2  1533 0001:0002E71D  1534 0001:0002E788  1535 0001:0002E7F3
  1536 0001:0002E872  1543 0001:0002E8E0  1544 0001:0002E8E6  1545 0001:0002E8E8
  1546 0001:0002E8F6  1548 0001:0002E918  1550 0001:0002E924  1552 0001:0002E92C
  1555 0001:0002E92F  1556 0001:0002E932  1557 0001:0002E93B  1559 0001:0002E941
  1560 0001:0002E951  1565 0001:0002E958  1566 0001:0002E97B  1567 0001:0002E98A
  1568 0001:0002E998  1569 0001:0002E9B4  1570 0001:0002E9C0  1572 0001:0002E9D7
  1574 0001:0002EA04  1577 0001:0002EA0C  1578 0001:0002EA0F  1579 0001:0002EA21
  1580 0001:0002EA2F  1583 0001:0002EA34  1584 0001:0002EA51  1585 0001:0002EA63
  1586 0001:0002EA82  1587 0001:0002EAA1  1588 0001:0002EAE2  1595 0001:0002EB4C
  1596 0001:0002EB71  1597 0001:0002EB80  1598 0001:0002EB8E  1599 0001:0002EBA3
  1600 0001:0002EBD7  1602 0001:0002EBF0  1603 0001:0002EBFD  1604 0001:0002EC0C
  1605 0001:0002EC40  1607 0001:0002EC5F  1610 0001:0002EC7C  1611 0001:0002EC8B
  1613 0001:0002EC8F  1614 0001:0002ECB4  1616 0001:0002ECFD  1619 0001:0002ED0D
  1620 0001:0002ED1A  1600 0001:0002ED1B  1621 0001:0002ED24  1622 0001:0002ED2F
  1624 0001:0002ED68  1626 0001:0002ED78  1627 0001:0002EDED  1634 0001:0002EFB0
  1635 0001:0002EFDF  1636 0001:0002EFEE  1637 0001:0002EFFC  1638 0001:0002F011
  1640 0001:0002F028  1641 0001:0002F035  1643 0001:0002F05A  1644 0001:0002F06A
  1645 0001:0002F07C  1646 0001:0002F08E  1647 0001:0002F0A3  1649 0001:0002F0B0
  1650 0001:0002F0BD  1651 0001:0002F0D0  1652 0001:0002F0DD  1638 0001:0002F0DE
  1653 0001:0002F0E7  1654 0001:0002F0F2  1656 0001:0002F12B  1658 0001:0002F13B
  1659 0001:0002F1B0  1671 0001:0002F34C  1672 0001:0002F372  1673 0001:0002F37C
  1674 0001:0002F38A  1675 0001:0002F399  1677 0001:0002F3BA  1679 0001:0002F3CD
  1680 0001:0002F3DC  1681 0001:0002F3EA  1682 0001:0002F400  1683 0001:0002F434
  1684 0001:0002F46E  1686 0001:0002F473  1687 0001:0002F480  1688 0001:0002F492
  1689 0001:0002F4A4  1690 0001:0002F4B6  1691 0001:0002F4C8  1692 0001:0002F4D5
  1684 0001:0002F4D6  1693 0001:0002F4DB  1694 0001:0002F4EB  1695 0001:0002F54A
  1696 0001:0002F58E  1697 0001:0002F59E  1698 0001:0002F5B0  1699 0001:0002F5C2
  1700 0001:0002F5EC  1702 0001:0002F606  1703 0001:0002F613  1704 0001:0002F625
  1705 0001:0002F637  1706 0001:0002F649  1707 0001:0002F65B  1708 0001:0002F66D
  1709 0001:0002F67F  1710 0001:0002F68C  1711 0001:0002F699  1700 0001:0002F69A
  1712 0001:0002F6A1  1713 0001:0002F6AC  1715 0001:0002F6E5  1717 0001:0002F6F5
  1718 0001:0002F76A  1726 0001:0002F94C  1727 0001:0002F955  1728 0001:0002F95C
  1729 0001:0002F967  1730 0001:0002F977  1736 0001:0002F980  1737 0001:0002F989
  1738 0001:0002F990  1739 0001:0002F99B  1740 0001:0002F9AB  1743 0001:0002F9B4
  1744 0001:0002F9B7  1747 0001:0002F9CC  1748 0001:0002F9D1  1750 0001:0002F9E6
  1751 0001:0002F9EB  1753 0001:0002FA00  1758 0001:0002FAD0  1759 0001:0002FAF0
  1760 0001:0002FAF9  1761 0001:0002FB18  1762 0001:0002FB37  1763 0001:0002FB56
  1764 0001:0002FB75  1765 0001:0002FB94  1766 0001:0002FBB3  1767 0001:0002FBF4
  1774 0001:0002FCC8  1775 0001:0002FCD7  1776 0001:0002FCE7  1778 0001:0002FCEB
  1779 0001:0002FCF7  1781 0001:0002FCFE  1782 0001:0002FD03  1783 0001:0002FD06
  1784 0001:0002FD12  1791 0001:0002FD1C  1792 0001:0002FD1F  1793 0001:0002FD2B
  1794 0001:0002FD3A  1795 0001:0002FD3E  1798 0001:0002FD42  1799 0001:0002FD4D
  1801 0001:0002FD52  1807 0001:0002FD8C  1808 0001:0002FD92  1809 0001:0002FD9C
  1811 0001:0002FDAB  1812 0001:0002FDAD  1815 0001:0002FDB1  1817 0001:0002FDD4
  1819 0001:0002FDE8  1824 0001:0002FDEC  1825 0001:0002FDF1  1826 0001:0002FDFA
  1828 0001:0002FDFE  1829 0001:0002FE09  1831 0001:0002FE15  1836 0001:0002FE1C
  1837 0001:0002FE1F  1838 0001:0002FE34  1839 0001:0002FE37  1840 0001:0002FE47
  1845 0001:0002FE4C  1846 0001:0002FE52  1847 0001:0002FE54  1850 0001:0002FE58
  1852 0001:0002FE61  1854 0001:0002FE6C  1855 0001:0002FE79  1858 0001:0002FE80
  1859 0001:0002FE83  1861 0001:0002FE88  1862 0001:0002FE9A  1863 0001:0002FE9E
  1869 0001:0002FEA0  1870 0001:0002FEA7  1873 0001:0002FEA8  1874 0001:0002FEAC
  1886 0001:0002FF04  1893 0001:0002FF08  1894 0001:0002FF11  1896 0001:0002FF15
  1897 0001:0002FF17  1900 0001:0002FF1C  1901 0001:0002FF20  1903 0001:0002FF23
  1904 0001:0002FF28  1906 0001:0002FF2D  1907 0001:0002FF36  1908 0001:0002FF42
  1909 0001:0002FF47  1911 0001:0002FF51  1914 0001:0002FF74  1915 0001:0002FF7D
  1917 0001:0002FF80  1918 0001:0002FF85  1920 0001:0002FF90  1921 0001:0002FF95
  1922 0001:0002FF9C  1923 0001:0002FFA1  1925 0001:0002FFAA  1928 0001:0002FFC0
  1929 0001:0002FFC4  1931 0001:0002FFCD  1932 0001:0002FFD4  1935 0001:0002FFDC
  1936 0001:0002FFDF  1941 0001:00030004  1946 0001:00030008  1947 0001:0003003A
  1950 0001:0003003E  1952 0001:00030049  1953 0001:000300A0  1948 0001:000300AD
  1955 0001:000300E9  1960 0001:000300F0  1961 0001:000300F6  1962 0001:0003010A
  1963 0001:0003010C  1964 0001:00030113  1967 0001:00030118  1968 0001:0003013A
  1969 0001:00030180  1974 0001:00030188  1975 0001:000301A1  1976 0001:000301A3
  1977 0001:000301AC  1976 0001:000301C9  1978 0001:000301CE  1990 0001:000301DC
  1991 0001:0003020E  1994 0001:00030212  1995 0001:00030269  1992 0001:00030276
  1997 0001:000302B2  2002 0001:000302BC  2003 0001:000302BF  2004 0001:000302CA
  2005 0001:000302CC  2006 0001:000302D3  2009 0001:000302D8  2010 0001:000302DB
  2011 0001:000302FC  2016 0001:00030310  2017 0001:00030335  2018 0001:00030339
  2019 0001:0003033C  2021 0001:0003038C  2023 0001:00030394  2025 0001:000303A5
  2026 0001:000303AB  2031 0001:000303B2  2033 0001:000303BE  2034 0001:000303D1
  2035 0001:000303D5  2036 0001:000303DD  2037 0001:000303E3  2040 0001:00030433
  2041 0001:00030446  2042 0001:0003044A  2045 0001:00030475  2048 0001:0003047C
  2049 0001:00030482  2051 0001:00030487  2052 0001:0003048E  2053 0001:00030496
  2054 0001:0003049A  2055 0001:000304A2  2057 0001:000304A6  2063 0001:000304AC
  2064 0001:000304B6  2066 0001:000304C5  2068 0001:000304CF  2069 0001:000304DE
  2070 0001:000304EC  2071 0001:000304F0  2072 0001:00030500  2073 0001:0003050A
  2074 0001:00030519  2077 0001:00030535  2079 0001:0003055D  2081 0001:0003056D
  2088 0001:00030574  2089 0001:0003057E  2091 0001:0003058D  2093 0001:00030598
  2094 0001:000305A7  2095 0001:000305B1  2096 0001:000305BF  2098 0001:000305C7
  2099 0001:000305DA  2100 0001:000305E8  2101 0001:000305F9  2103 0001:00030610
  2107 0001:0003062D  2109 0001:00030640  2115 0001:00030648  2117 0001:00030663
  2121 0001:00030664  2122 0001:0003067D  2126 0001:00030680  2127 0001:00030699
  2132 0001:0003069C  2133 0001:000306B5  2134 0001:000306C1  2136 0001:000306D7
  2138 0001:000306F3  2139 0001:00030711  2141 0001:00030722  2143 0001:00030733
  2144 0001:00030751  2146 0001:00030762  2147 0001:00030773  2151 0001:00030784
  2153 0001:000307B0  2154 0001:000307C4  2155 0001:000307D2  2156 0001:000307E5
  2157 0001:000307F3  2158 0001:00030801  2159 0001:00030813  2161 0001:00030821
  2163 0001:0003082D  2166 0001:0003085F  2169 0001:00030980  2170 0001:00030983
  2171 0001:0003098D  2173 0001:0003099D  2174 0001:000309B0  2182 0001:000309B4
  2188 0001:000309F9  2189 0001:00030A06  2190 0001:00030A13  2191 0001:00030A20
  2192 0001:00030A2D  2193 0001:00030A3A  2194 0001:00030A47  2195 0001:00030A54
  2196 0001:00030A61  2197 0001:00030A6E  2198 0001:00030A7B  2199 0001:00030A88
  2200 0001:00030A95  2201 0001:00030AA2  2202 0001:00030AAF  2203 0001:00030ABC
  2204 0001:00030AC9  2205 0001:00030AD6  2206 0001:00030AE3  2208 0001:00030AF0
  2209 0001:00030AFD  2210 0001:00030B15  2211 0001:00030B34  2212 0001:00030B41
  2213 0001:00030B55  2214 0001:00030B6D  2216 0001:00030C47  2221 0001:00030D84
  2223 0001:00030D87  2227 0001:00030D96  2256 0001:00030D98  2257 0001:00030D9A
  2258 0001:00030D9D  2262 0001:00030DA0  2263 0001:00030DA7  2265 0001:00030DA8
  2266 0001:00030DD6  2267 0001:00030DDE  2268 0001:00030DED  2269 0001:00030DFB
  2270 0001:00030E0E  2271 0001:00030E1C  2273 0001:00030E2A  2277 0001:00030E5E
  2280 0001:00030E88  2282 0001:00030E9A  2283 0001:00030EAE  2285 0001:00030EC5
  2290 0001:00030F69  2291 0001:00030F71  2294 0001:00031004  2280 0001:00031005
  2296 0001:00031019  2298 0001:00031053  2303 0001:000310BC  2304 0001:000310E3
  2305 0001:000310F0  2306 0001:000310FE  2307 0001:00031115  2313 0001:000311CC
  2315 0001:00031203  2317 0001:00031240  2318 0001:00031264  2319 0001:0003126B
  2320 0001:00031279  2322 0001:000312AB  2325 0001:000312C7  2326 0001:000312CE
  2328 0001:000312E2  2329 0001:000312F4  2331 0001:000312F7  2332 0001:00031307
  2336 0001:00031329  2337 0001:00031336  2339 0001:0003133E  2340 0001:0003134C
  2342 0001:0003136E  2343 0001:00031376  2345 0001:000313DA  2347 0001:000313E8
  2348 0001:000313F0  2349 0001:00031400  2351 0001:0003140B  2352 0001:0003143F
  2349 0001:00031440  2354 0001:00031443  2361 0001:00031556  2362 0001:00031576
  2364 0001:00031590  2366 0001:0003159E  2367 0001:000315A8  2368 0001:000315B2
  2371 0001:000315B9  2374 0001:000315FB  2376 0001:0003161B  2379 0001:00031637
  2385 0001:00031681  2387 0001:000316D2  2392 0001:000319C4  2393 0001:000319E9
  2394 0001:000319EF  2395 0001:000319FB  2398 0001:00031A53  2400 0001:00031A61
  2401 0001:00031A72  2404 0001:00031AB5  2408 0001:00031B00  2409 0001:00031B07
  2410 0001:00031B11  2413 0001:00031B14  2414 0001:00031B3E  2415 0001:00031B52
  2418 0001:00031B8D  2422 0001:00031BDE  2433 0001:00031C10  2434 0001:00031C1A
  2435 0001:00031C1C  2437 0001:00031C2A  2438 0001:00031C30  2439 0001:00031C36
  2441 0001:00031C46  2447 0001:00031C4C  2448 0001:00031C5C  2449 0001:00031C61
  2450 0001:00031C73  2452 0001:00031C87  2453 0001:00031C8E  2456 0001:00031C98
  2457 0001:00031CAE  2458 0001:00031CE9  2460 0001:00031D08  2461 0001:00031D0D
  2462 0001:00031D28  2464 0001:00031D2C  2465 0001:00031D36  2468 0001:00031D4E
  2469 0001:00031D58  2470 0001:00031D60  2472 0001:00031D6A  2473 0001:00031D74
  2477 0001:00031DA2  2492 0001:00031DA8  2493 0001:00031DB4  2494 0001:00031DBE
  2496 0001:00031DD0  2497 0001:00031DD3  2500 0001:00031DD7  2501 0001:00031DD9
  2503 0001:00031DE0  2504 0001:00031DE3  2505 0001:00031DE6  2506 0001:00031DEC
  2507 0001:00031DF9  2508 0001:00031DFD  2555 0001:00031E00  2556 0001:00031E0E
  2557 0001:00031E18  2559 0001:00031E29  2561 0001:00031E41  2562 0001:00031E4C
  2563 0001:00031E57  2564 0001:00031E62  2567 0001:00031E6D  2568 0001:00031E6F
  2570 0001:00031E78  2571 0001:00031E80  2572 0001:00031E83  2573 0001:00031EA7
  2574 0001:00031EB4  2575 0001:00031EBE  2576 0001:00031ED7  2581 0001:00031EE0
  2582 0001:00031EE1  2583 0001:00031EE8  2584 0001:00031EF3  2587 0001:00031EF8
  2588 0001:00031EFB  2589 0001:00031F0B  2596 0001:00031F10  2597 0001:00031F18
  2598 0001:00031F22  2599 0001:00031F36  2600 0001:00031F38  2603 0001:00031F40
  2604 0001:00031F4A  2605 0001:00031F5A  2613 0001:00031F5C  2614 0001:00031F66
  2616 0001:00031F6E  2617 0001:00031F78  2618 0001:00031F7F  2619 0001:00031F8D
  2620 0001:00031F9B  2621 0001:00031FA9  2622 0001:00031FB5  2623 0001:00031FC3
  2624 0001:00031FD4  2625 0001:00031FD9  2627 0001:00031FF1  2630 0001:0003200F
  2633 0001:0003202D  2635 0001:0003203A  2641 0001:00032040  2642 0001:00032043
  2644 0001:00032047  2645 0001:0003204D  2646 0001:0003205D  2651 0001:0003208C
  2652 0001:00032099  2659 0001:000320A0  2660 0001:000320B5  2661 0001:000320BE
  2662 0001:000320E3  2665 0001:000320E8  2666 0001:000320F3  2667 0001:000320FE
  2668 0001:00032115  2671 0001:00032118  2672 0001:00032123  2673 0001:00032125
  2674 0001:0003213A  2675 0001:0003214D  2704 0001:00032154  2712 0001:0003215F
  2713 0001:00032161  2715 0001:00032173  2717 0001:00032177  2716 0001:00032178
  2718 0001:00032191  2720 0001:0003219C  2721 0001:000321B5  2724 0001:000321C3
  2725 0001:000321CD  2726 0001:000321D8  2730 0001:000321EB  2731 0001:000321F6
  2733 0001:00032209  2738 0001:00032210  2739 0001:00032213  2740 0001:0003221F
  2748 0001:00032224  2749 0001:0003222A  2750 0001:00032235  2751 0001:00032246
  2752 0001:00032254  2754 0001:00032270  2755 0001:0003227C  2757 0001:00032296
  2758 0001:000322A5  2760 0001:000322D6  2764 0001:000322EB  2766 0001:000322FE
  2775 0001:00032304  2776 0001:00032320  2777 0001:00032324  2778 0001:00032335
  2779 0001:00032343  2781 0001:00032367  2782 0001:00032373  2784 0001:00032395
  2785 0001:000323A4  2787 0001:000323C9  2790 0001:000323E7  2792 0001:00032406
  2793 0001:00032414  2795 0001:0003243C  2798 0001:00032442  2801 0001:00032453
  2805 0001:00032464  2810 0001:00032475  2812 0001:000324A5  2815 0001:000324C8
  2816 0001:000324E3  2817 0001:000324EC  2818 0001:00032515  2819 0001:0003252A
  2820 0001:00032581  2823 0001:000325A4  2824 0001:000325C3  2825 0001:000325D0
  2826 0001:0003261C  2831 0001:00032634  2832 0001:0003264E  2833 0001:00032657
  2834 0001:0003265C  2837 0001:00032660  2838 0001:0003266A  2835 0001:0003266B
  2840 0001:0003267B  2841 0001:000326BF  2856 0001:000326D4  2857 0001:000326FE
  2858 0001:00032705  2859 0001:0003270C  2860 0001:00032711  2861 0001:00032725
  2863 0001:0003272F  2864 0001:0003273A  2865 0001:00032748  2867 0001:00032767
  2869 0001:00032785  2873 0001:000327C9  2874 0001:000327CE  2875 0001:000327F2
  2877 0001:00032806  2879 0001:00032824  2880 0001:00032831  2881 0001:00032838
  2882 0001:00032847  2883 0001:00032852  2885 0001:000328A7  2889 0001:000328C9
  2892 0001:000328FE  2895 0001:0003297C  2896 0001:00032982  2898 0001:00032989
  2899 0001:000329B6  2900 0001:000329C5  2901 0001:000329D4  2902 0001:000329E3
  2903 0001:000329F2  2904 0001:00032A01  2906 0001:00032A0D  2909 0001:00032A80
  2910 0001:00032A86  2911 0001:00032A99  2912 0001:00032AA6  2917 0001:00032AB8
  2918 0001:00032AD0  2919 0001:00032B0E  2925 0001:00032B14  2926 0001:00032B1E
  2928 0001:00032B20  2929 0001:00032B2E  2931 0001:00032B33  2932 0001:00032B37
  2934 0001:00032B3F  2938 0001:00032B48  2939 0001:00032B4C  2956 0001:00032B50
  2957 0001:00032B58  2958 0001:00032B65  2959 0001:00032B6F  2960 0001:00032B7D
  2961 0001:00032B8D  2963 0001:00032B95  2965 0001:00032BAA  2966 0001:00032BB4
  2967 0001:00032BC2  2969 0001:00032BD4  2970 0001:00032BDF  2971 0001:00032BED
  2972 0001:00032C03  2973 0001:00032C11  2974 0001:00032C20  2972 0001:00032C2C
  2976 0001:00032C3C  2980 0001:00032C5C  2984 0001:00032C7A  2986 0001:00032C8B
  2996 0001:00032CB4  2997 0001:00032CC0  2998 0001:00032CCD  2999 0001:00032CD7
  3000 0001:00032CE5  3001 0001:00032CF5  3002 0001:00032D05  3003 0001:00032D15
  3006 0001:00032D2D  3007 0001:00032D3A  3008 0001:00032D44  3009 0001:00032D52
  3010 0001:00032D64  3011 0001:00032D6E  3014 0001:00032D83  3015 0001:00032D92
  3016 0001:00032D9D  3012 0001:00032DB0  3019 0001:00032DC1  3023 0001:00032DDF
  3025 0001:00032DF0  3027 0001:00032E44  3028 0001:00032E4E  3030 0001:00032E52
  3031 0001:00032E69  3029 0001:00032E72  3033 0001:00032E7C  3034 0001:00032E83
  3035 0001:00032E91  3036 0001:00032E9B  3038 0001:00032EA2  3039 0001:00032EA7
  3041 0001:00032EC0  3043 0001:00032ECF  3047 0001:00032ED4  3048 0001:00032ED8
  3129 0001:00032EDC  3130 0001:00032EE8  3132 0001:00032EEF  3133 0001:00032EF1
  3135 0001:00032EFA  3137 0001:00032EFE  3138 0001:00032F03  3140 0001:00032F1B
  3142 0001:00032F33  3144 0001:00032F46  3145 0001:00032F49  3135 0001:00032F4B
  3148 0001:00032F52  3153 0001:00032F5C  3154 0001:00032F66  3155 0001:00032F68
  3157 0001:00032F71  3158 0001:00032F84  3159 0001:00032F89  3167 0001:00032F90
  3168 0001:00032F98  3171 0001:00032FBF  3173 0001:00032FCE  3174 0001:00032FD0
  3175 0001:00032FDE  3177 0001:00032FE7  3178 0001:00032FF6  3179 0001:00032FFD
  3182 0001:00033012  3184 0001:0003302A  3187 0001:0003303B  3188 0001:00033045
  3190 0001:00033059  3180 0001:0003306C  3192 0001:00033070  3194 0001:00033076
  3237 0001:0003307C  3238 0001:00033099  3240 0001:000330A9  3241 0001:000330B3
  3243 0001:000330C1  3244 0001:000330C9  3246 0001:000330D2  3247 0001:000330DF
  3248 0001:000330FB  3249 0001:0003310A  3251 0001:00033112  3253 0001:00033122
  3255 0001:00033138  3257 0001:00033145  3258 0001:00033157  3261 0001:00033162
  3265 0001:00033170  3266 0001:00033172  3267 0001:0003317E  3268 0001:0003318E
  3270 0001:00033193  3272 0001:000331AC  3274 0001:000331DF  3283 0001:000331E8
  3285 0001:000331EF  3287 0001:000331FB  3289 0001:00033207  3291 0001:00033213
  3293 0001:0003321F  3294 0001:0003322B  3295 0001:00033230  3305 0001:00033234
  3306 0001:0003325A  3308 0001:00033263  3309 0001:00033270  3310 0001:0003327A
  3311 0001:00033288  3312 0001:0003329F  3313 0001:000332B0  3314 0001:000332C0
  3317 0001:000332E2  3318 0001:000332F6  3319 0001:00033300  3320 0001:0003330E
  3321 0001:00033320  3322 0001:0003332A  3325 0001:00033340  3326 0001:00033353
  3328 0001:00033361  3329 0001:00033373  3331 0001:0003337F  3323 0001:00033392
  3334 0001:000333A3  3338 0001:000333C1  3340 0001:000333EF  3377 0001:00033444
  3378 0001:0003348A  3380 0001:0003349D  3382 0001:000334A7  3383 0001:000334BE
  3385 0001:000334F3  3386 0001:00033505  3389 0001:00033510  3390 0001:00033527
  3394 0001:00033535  3395 0001:0003353D  3396 0001:0003354B  3397 0001:00033550
  3398 0001:00033559  3400 0001:00033560  3401 0001:00033599  3408 0001:000335A0
  3409 0001:000335BF  3412 0001:000335E6  3413 0001:000335F5  3414 0001:000335FF
  3415 0001:0003360D  3416 0001:00033617  3419 0001:00033632  3420 0001:0003364D
  3421 0001:00033679  3417 0001:00033692  3424 0001:000336A3  3426 0001:000336D4
  3433 0001:000336D8  3434 0001:000336E7  3436 0001:000336F0  3438 0001:0003370C
  3440 0001:0003371E  3441 0001:0003372C  3438 0001:0003372F  3443 0001:00033732
  3445 0001:00033738  3446 0001:0003373F  3448 0001:00033743  3450 0001:0003374D
  3451 0001:0003375A  3452 0001:00033766  3454 0001:00033774  3455 0001:00033785
  3456 0001:00033796  3459 0001:000337A7  3460 0001:000337B5  3461 0001:000337C3
  3462 0001:000337D1  3463 0001:000337DF  3465 0001:000337ED  3466 0001:000337FF
  3468 0001:00033806  3469 0001:00033815  3472 0001:0003382F  3474 0001:00033846
  3481 0001:00033904  3489 0001:00033910  3500 0001:00033914  3501 0001:0003391D
  3509 0001:00033920  3510 0001:00033941  3519 0001:00033954  3520 0001:00033958
  3522 0001:00033989  3524 0001:0003398D  3525 0001:00033999  3526 0001:0003399E
  3528 0001:000339A9  3530 0001:000339C4  3531 0001:000339DE  3532 0001:000339E0
  3535 0001:00033A2B  3537 0001:00033A56  3538 0001:00033A65  3539 0001:00033A6E
  3540 0001:00033AA0  3543 0001:00033AD0  3549 0001:00033B20  3552 0001:00033B47
  3558 0001:00033B5C  3559 0001:00033B66  3565 0001:00033B68  3566 0001:00033B91
  3572 0001:00033B94  3573 0001:00033BAC  3590 0001:00033BB0  3591 0001:00033BE6
  3592 0001:00033BEA  3598 0001:00033C77  3600 0001:00033C84  3602 0001:00033C91
  3603 0001:00033C98  3604 0001:00033CA6  3605 0001:00033CB2  3607 0001:00033CF3
  3608 0001:00033CFE  3610 0001:00033D29  3615 0001:00033D38  3616 0001:00033D3C
  3620 0001:00033D4D  3622 0001:00033D56  3624 0001:00033D74  3625 0001:00033D7A
  3628 0001:00033D98  3632 0001:00033DA9  3634 0001:00033DB6  3635 0001:00033DC4
  3636 0001:00033DD2  3639 0001:00033DEB  3640 0001:00033E05  3641 0001:00033E13
  3642 0001:00033E28  3644 0001:00033E4A  3647 0001:00033E69  3648 0001:00033E6D
  3651 0001:00033EBB  3660 0001:00033FB8  3661 0001:00033FDD  3662 0001:00033FE5
  3663 0001:00034009  3666 0001:0003401F  3667 0001:00034030  3668 0001:0003403E
  3670 0001:0003405C  3675 0001:0003406C  3676 0001:00034093  3678 0001:00034097
  3679 0001:000340A6  3683 0001:000340B5  3684 0001:000340CF  3685 0001:000340E7
  3686 0001:000340EF  3689 0001:00034129  3692 0001:00034168  3693 0001:000341C4
  3696 0001:00034248  3697 0001:00034263  3698 0001:00034267  3700 0001:0003428A
  3701 0001:000342C0  3715 0001:0003436C  3716 0001:0003436F  3717 0001:0003437C
  3718 0001:0003438B  3724 0001:00034390  3725 0001:000343AA  3726 0001:000343B4
  3727 0001:000343D2  3729 0001:000343D6  3730 0001:000343DF  3731 0001:000343E4
  3733 0001:000343E8  3734 0001:00034408  3737 0001:0003442E  3739 0001:00034434
  3740 0001:00034454  3741 0001:00034458  3743 0001:00034472  3744 0001:00034480
  3746 0001:0003449A  3748 0001:000344B8  3749 0001:000344E1  3751 0001:000344EE
  3753 0001:0003451E  3755 0001:00034526  3756 0001:00034561  3757 0001:00034581
  3759 0001:00034585  3761 0001:0003458B  3762 0001:000345A6  3764 0001:000345C4
  3766 0001:000345CA  3767 0001:000345D5  3770 0001:000345F3  3771 0001:000345F9
  3772 0001:00034619  3774 0001:00034621  3775 0001:0003462F  3778 0001:00034655
  3780 0001:00034666  3781 0001:0003466C  3783 0001:000346A3  3785 0001:000346B6
  3789 0001:000346C9  3791 0001:0003470F  3795 0001:0003485C  3796 0001:0003485F
  3797 0001:0003486D  3798 0001:00034881  3801 0001:00034884  3802 0001:00034887
  3803 0001:000348A2  3808 0001:000348A4  3809 0001:000348A8  3810 0001:000348AA
  3812 0001:000348CE  3819 0001:000348D4  3821 0001:000348DE  3825 0001:000348E0
  3826 0001:000348F3  3831 0001:000348F4  3832 0001:000348F8  3833 0001:000348FA
  3834 0001:000348FB  3836 0001:0003490B  3837 0001:00034917  3838 0001:0003491F
  3840 0001:00034923  3841 0001:0003492B  3843 0001:0003492F  3844 0001:00034937
  3846 0001:0003493B  3854 0001:00034940  3855 0001:0003494C  3857 0001:0003494E
  3859 0001:00034954  3860 0001:00034957  3863 0001:00034959  3865 0001:00034962
  3867 0001:00034982  3869 0001:00034988  3873 0001:0003498C  3874 0001:0003498E
  3875 0001:00034992  3877 0001:00034995  3878 0001:00034998  3880 0001:0003499F
  3881 0001:000349A2  3882 0001:000349A3  3883 0001:000349BA  3884 0001:000349D1
  3891 0001:000349D8  3892 0001:000349E0  3893 0001:000349E5  3894 0001:000349EF
  3896 0001:000349F3  3897 0001:000349FF  3898 0001:00034A06  3900 0001:00034A16
  3908 0001:00034A20  3909 0001:00034A55  3910 0001:00034A59  3911 0001:00034A69
  3913 0001:00034A71  3915 0001:00034A77  3916 0001:00034A7B  3919 0001:00034A7F
  3920 0001:00034A8B  3922 0001:00034A9B  3924 0001:00034AA7  3926 0001:00034AAD
  3928 0001:00034ABC  3929 0001:00034AC4  3931 0001:00034AD1  3934 0001:00034AE2
  3935 0001:00034B1B  3936 0001:00034B21  3941 0001:00034B72  3942 0001:00034B7D
  3943 0001:00034B80  3941 0001:00034B81  3944 0001:00034BA6  3970 0001:00034BC8
  3971 0001:00034BDB  3973 0001:00034C00  3975 0001:00034C0A  3976 0001:00034C0F
  3977 0001:00034C14  3978 0001:00034C27  3979 0001:00034C3C  3980 0001:00034C51
  3981 0001:00034C5C  3983 0001:00034C68  3985 0001:00034CBE  3986 0001:00034CC7
  3988 0001:00034CD8  3989 0001:00034CDA  3990 0001:00034CE8  3992 0001:00034CF5
  3994 0001:00034D20  3995 0001:00034D54  3996 0001:00034D5B  4000 0001:00034D68
  4003 0001:00034D7A  4004 0001:00034D7D  4006 0001:00034D88  4009 0001:00034D92
  4012 0001:00034DAA  4013 0001:00034DBC  4017 0001:00034DDF  4018 0001:00034DF1
  4021 0001:00034DFE  4022 0001:00034E06  4023 0001:00034E0E  4024 0001:00034E16
  4025 0001:00034E1E  4026 0001:00034E2D  4027 0001:00034E33  4028 0001:00034E4A
  4029 0001:00034E64  4030 0001:00034E9B  4031 0001:00034EAD  4032 0001:00034EBF
  4033 0001:00034ED1  4034 0001:00034EE3  4035 0001:00034EF0  4036 0001:00034EFC
  4037 0001:00034F08  4038 0001:00034F0F  4039 0001:00034F16  4040 0001:00034F1D
  4041 0001:00034F24  4042 0001:00034F2B  4043 0001:00034F32  4047 0001:00034F6B
  4048 0001:00034F71  4050 0001:00034F75  4051 0001:00034F81  4053 0001:00034F8D
  4055 0001:00034F9F  4057 0001:00034FA8  4058 0001:00034FB8  4059 0001:00034FBF
  4060 0001:00034FD2  4065 0001:00034FE5  4067 0001:00034FEE  4068 0001:00034FFF
  4069 0001:00035006  4070 0001:00035019  4074 0001:0003502C  4075 0001:0003503A
  4077 0001:00035043  4078 0001:00035059  4079 0001:0003506B  4080 0001:0003507C
  4081 0001:0003508E  4085 0001:000350A2  4086 0001:000350B8  4087 0001:000350CA
  4088 0001:000350D1  4090 0001:000350E9  4091 0001:000350FC  4092 0001:00035105
  4093 0001:00035110  4097 0001:00035113  4098 0001:00035125  4099 0001:0003512C
  4100 0001:0003513E  4105 0001:00035146  4106 0001:00035159  4107 0001:00035161
  4109 0001:0003516E  4110 0001:0003517A  4111 0001:00035189  4112 0001:00035198
  4114 0001:000351A1  4115 0001:000351B7  4117 0001:000351C0  4118 0001:000351DE
  4120 0001:000351FE  4124 0001:00035207  4125 0001:00035218  4127 0001:00035234
  4128 0001:00035246  4129 0001:0003524D  4130 0001:00035267  4131 0001:00035270
  4133 0001:00035281  4135 0001:000352AE  4136 0001:000352BF  4137 0001:000352D0
  4138 0001:000352DC  4139 0001:000352E2  4141 0001:0003531A  4142 0001:00035340
  4146 0001:00035379  4147 0001:00035389  4019 0001:0003538F  4149 0001:000353AB
  4152 0001:000353C5  4154 0001:000353F6  4155 0001:000353FF  4156 0001:00035409
  4157 0001:00035416  4158 0001:00035423  4159 0001:00035431  4160 0001:0003543F
  4164 0001:00035471  4176 0001:00035490  4177 0001:0003549B  4178 0001:000354A0
  4179 0001:000354B8  4181 0001:000354C0  4182 0001:000354D1  4184 0001:000354DF
  4186 0001:000354EF  4189 0001:000354FF  4191 0001:0003550F  4194 0001:00035517
  4196 0001:00035527  4198 0001:00035537  4201 0001:00035547  4202 0001:00035557
  4203 0001:00035564  4206 0001:0003556A  4207 0001:0003557A  4208 0001:0003558A
  4204 0001:0003559A  4210 0001:000355BF  4211 0001:000355C4  4215 0001:000355E1
  4218 0001:000355F4  4260 0001:00035604  4261 0001:00035627  4262 0001:00035636
  4263 0001:0003563B  4266 0001:0003563F  4265 0001:00035640  4267 0001:00035654
  4268 0001:00035670  4269 0001:00035671  4270 0001:00035673  4271 0001:0003567E
  4274 0001:00035693  4275 0001:000356C3  4276 0001:000356D0  4277 0001:000356F8
  4278 0001:00035701  4282 0001:0003570D  4283 0001:0003573D  4284 0001:00035765
  4285 0001:0003578D  4286 0001:00035796  4289 0001:0003579D  4290 0001:000357C7
  4292 0001:000357E0  4293 0001:00035803  4294 0001:00035807  4296 0001:00035811
  4298 0001:0003581D  4300 0001:00035839  4301 0001:00035848  4303 0001:00035850
  4304 0001:00035864  4305 0001:0003587C  4306 0001:00035893  4308 0001:0003589D
  4309 0001:000358AF  4310 0001:000358BE  4311 0001:000358CE  4314 0001:000358D5
  4316 0001:000358DF  4317 0001:000358EC  4319 0001:000358ED  4312 0001:000358EE
  4321 0001:000358FA  4327 0001:00035903  4329 0001:00035914  4330 0001:00035923
  4331 0001:00035927  4332 0001:0003593B  4336 0001:00035944  4338 0001:0003594C
  4339 0001:00035953  4340 0001:0003595D  4341 0001:00035972  4342 0001:00035978
  4346 0001:0003597C  4348 0001:00035994  4349 0001:000359BE  4362 0001:000359F4
  4363 0001:00035A05  4364 0001:00035A09  4365 0001:00035A0B  4366 0001:00035A15
  4368 0001:00035A1A  4369 0001:00035A21  4371 0001:00035A54  4372 0001:00035A58
  4373 0001:00035A68  4376 0001:00035A71  4377 0001:00035A75  4366 0001:00035A7D
  4380 0001:00035A82  4381 0001:00035A8A  4387 0001:00035A94  4388 0001:00035AD4
  4389 0001:00035AD8  4394 0001:00035B0D  4395 0001:00035B10  4396 0001:00035B16
  4397 0001:00035B1C  4399 0001:00035B39  4400 0001:00035B54  4401 0001:00035B5F
  4402 0001:00035B67  4403 0001:00035B6F  4404 0001:00035B82  4406 0001:00035B8B
  4407 0001:00035BA3  4408 0001:00035BBB  4409 0001:00035BCE  4411 0001:00035BD7
  4412 0001:00035BEF  4415 0001:00035C07  4417 0001:00035C19  4418 0001:00035C2C
  4421 0001:00035C44  4423 0001:00035C50  4425 0001:00035C77  4426 0001:00035C7E
  4430 0001:00035C93  4431 0001:00035CA6  4436 0001:00035CBB  4437 0001:00035CC2
  4439 0001:00035CD5  4440 0001:00035CE7  4441 0001:00035CEE  4442 0001:00035CF7
  4443 0001:00035D00  4445 0001:00035D0E  4447 0001:00035D19  4449 0001:00035D27
  4450 0001:00035D32  4451 0001:00035D35  4452 0001:00035D79  4454 0001:00035D8C
  4455 0001:00035D99  4456 0001:00035DA7  4457 0001:00035DB1  4458 0001:00035DB7
  4459 0001:00035DBD  4460 0001:00035DC1  4461 0001:00035DC4  4464 0001:00035DE0
  4465 0001:00035DE3  4466 0001:00035DE6  4467 0001:00035DEE  4469 0001:00035DF4
  4470 0001:00035DF7  4472 0001:00035E03  4473 0001:00035E13  4477 0001:00035E2A
  4482 0001:00035E34  4483 0001:00035E4B  4486 0001:00035E7D  4487 0001:00035E87
  4490 0001:00035E8E  4492 0001:00035E97  4493 0001:00035EBE  4495 0001:00035EF9
  4499 0001:00035F00  4501 0001:00035F09  4502 0001:00035F13  4504 0001:00035F1A
  4510 0001:00035F1C  4514 0001:00035F3C  4516 0001:00035F49  4518 0001:00035F5B
  4519 0001:00035F60  4520 0001:00035F6E  4521 0001:00035F95  4523 0001:00035F9F
  4525 0001:00035FAC  4526 0001:00035FD7  4527 0001:00035FEF  4530 0001:00036006
  4534 0001:00036013  4539 0001:0003603F  4548 0001:00036070  4549 0001:000360AF
  4550 0001:000360B4  4551 0001:000360CA  4553 0001:000360DD  4555 0001:000360EF
  4556 0001:0003610C  4557 0001:00036123  4559 0001:00036126  4551 0001:00036127
  4560 0001:0003612A  4561 0001:00036150  4562 0001:00036193  4565 0001:0003619C
  4566 0001:000361BB  4567 0001:000361C4  4568 0001:000361D2  4570 0001:0003620A
  4571 0001:00036218  4573 0001:00036283  4576 0001:000362B0  4577 0001:000362C6
  4578 0001:000362D4  4580 0001:000362ED  4581 0001:00036311  4584 0001:00036330
  4585 0001:00036333  4586 0001:00036345  4587 0001:0003634C  4590 0001:00036350
  4591 0001:0003636A  4592 0001:000363C8  4595 0001:000363D0  4596 0001:000363E6
  4597 0001:0003641A  4602 0001:00036438  4603 0001:00036452  4605 0001:000364C2
  4610 0001:000364D8  4611 0001:000364EE  4612 0001:000364FC  4614 0001:00036515
  4615 0001:00036539  4618 0001:0003655C  4619 0001:0003655F  4620 0001:00036571
  4621 0001:00036578  4624 0001:0003657C  4625 0001:00036597  4626 0001:000365A5
  4628 0001:000365F3  4629 0001:0003661C  4634 0001:00036634  4635 0001:00036650
  4637 0001:0003665E  4638 0001:0003666D  4639 0001:0003667B  4640 0001:00036685
  4641 0001:00036693  4644 0001:000366B5  4646 0001:000366C7  4648 0001:000366F9
  4653 0001:00036700  4654 0001:00036718  4656 0001:0003672A  4659 0001:00036756
  4660 0001:00036769  4662 0001:0003677C  4663 0001:0003678A  4664 0001:0003679B
  4666 0001:000367BB  4668 0001:000367ED  4673 0001:000367F4  4674 0001:000367FF
  4675 0001:00036806  4677 0001:00036815  4678 0001:00036824  4679 0001:00036832
  4680 0001:00036840  4681 0001:0003684A  4684 0001:00036863  4686 0001:00036875
  4688 0001:00036885  4691 0001:0003688C  4692 0001:000368AD  4693 0001:000368B4
  4694 0001:000368CD  4695 0001:000368ED  4696 0001:000368FF  4697 0001:0003691F
  4698 0001:0003693F  4699 0001:00036981  4717 0001:000369A8  4718 0001:000369AD
  4726 0001:000369B0  4727 0001:000369B6  4729 0001:000369B8  4730 0001:000369BC
  4732 0001:000369CA  4733 0001:000369CC  4735 0001:000369D8  4736 0001:000369E1
  4738 0001:000369EC  4739 0001:000369FE  4744 0001:00036A04  4745 0001:00036A06
  4746 0001:00036A16  4747 0001:00036A26  4752 0001:00036A54  4753 0001:00036A56
  4754 0001:00036A5F  4755 0001:00036A6D  4756 0001:00036A80  4754 0001:00036A9F
  4757 0001:00036AA4  4758 0001:00036AAD  4759 0001:00036ABD  4763 0001:00036AC0
  4764 0001:00036AC5  4765 0001:00036ACA  4770 0001:00036ACC  4771 0001:00036ACE
  4772 0001:00036ADE  4773 0001:00036AEE  4778 0001:00036B24  4779 0001:00036B26
  4780 0001:00036B2F  4781 0001:00036B3D  4782 0001:00036B50  4780 0001:00036B6F
  4783 0001:00036B74  4784 0001:00036B7D  4785 0001:00036B8D  4789 0001:00036B90
  4790 0001:00036B95  4791 0001:00036B9A  4799 0001:00036B9C  4800 0001:00036BD4
  4801 0001:00036BE4  4802 0001:00036C15  4808 0001:00036C4C  4809 0001:00036C84
  4810 0001:00036C8D  4811 0001:00036C9B  4812 0001:00036CAE  4813 0001:00036CCB
  4810 0001:00036CCC  4814 0001:00036CD1  4815 0001:00036CDA  4816 0001:00036D0B
  4824 0001:00036D14  4825 0001:00036D4C  4826 0001:00036D5C  4827 0001:00036D8D
  4833 0001:00036DC0  4834 0001:00036DF8  4835 0001:00036E01  4836 0001:00036E0F
  4837 0001:00036E22  4838 0001:00036E3F  4835 0001:00036E40  4839 0001:00036E45
  4840 0001:00036E4E  4841 0001:00036E7F  4846 0001:00036E88  4847 0001:00036E8A
  4848 0001:00036E93  4849 0001:00036EA1  4850 0001:00036EB4  4848 0001:00036ED3
  4851 0001:00036ED8  4852 0001:00036EF1  4858 0001:00036EF4  4859 0001:00036EF6
  4860 0001:00036F06  4861 0001:00036F17  4866 0001:00036F48  4867 0001:00036F4A
  4868 0001:00036F53  4869 0001:00036F61  4870 0001:00036F74  4868 0001:00036F94
  4871 0001:00036F99  4872 0001:00036FA2  4873 0001:00036FB3  4877 0001:00036FB8
  4878 0001:00036FBD  4879 0001:00036FC2  4885 0001:00036FC4  4886 0001:00036FC6
  4887 0001:00036FD6  4888 0001:00036FE7  4893 0001:00037018  4894 0001:0003701A
  4895 0001:00037023  4896 0001:00037031  4897 0001:00037044  4895 0001:00037064
  4898 0001:00037069  4899 0001:00037072  4900 0001:00037083  4904 0001:00037088
  4905 0001:0003708D  4906 0001:00037092  4911 0001:00037094  4912 0001:00037096
  4913 0001:000370A6  4914 0001:000370B7  4919 0001:000370EC  4920 0001:000370EE
  4921 0001:000370F7  4922 0001:00037105  4923 0001:00037118  4924 0001:00037137
  4921 0001:00037138  4925 0001:0003713D  4926 0001:00037146  4927 0001:00037157
  4931 0001:0003715C  4932 0001:00037161  4933 0001:00037166  4939 0001:00037168
  4940 0001:0003716A  4941 0001:0003717A  4942 0001:0003718A  4947 0001:000371BC
  4948 0001:000371BE  4949 0001:000371C7  4950 0001:000371D5  4951 0001:000371E8
  4952 0001:00037206  4949 0001:00037207  4953 0001:0003720C  4954 0001:00037215
  4955 0001:00037225  4959 0001:00037228  4960 0001:0003722D  4961 0001:00037232
  4970 0001:00037234  4971 0001:0003723C  4972 0001:0003724F  4974 0001:00037253
  4975 0001:00037265  4976 0001:00037273  4980 0001:00037281  4981 0001:00037294
  4983 0001:00037298  4984 0001:000372AA  4985 0001:000372B3  4988 0001:000372BF
  5000 0001:0003731C  5001 0001:0003734F  5002 0001:00037352  5004 0001:00037354
  5005 0001:00037357  5008 0001:00037376  5009 0001:00037378  5012 0001:0003737A
  5013 0001:0003737D  5015 0001:0003738D  5017 0001:000373A2  5019 0001:000373BA
  5020 0001:000373C1  5022 0001:000373E9  5024 0001:000373F0  5025 0001:00037426
  5026 0001:00037438  5028 0001:00037448  5029 0001:00037450  5031 0001:0003745E
  5033 0001:0003746A  5034 0001:00037470  5035 0001:00037475  5036 0001:00037479
  5038 0001:00037481  5040 0001:00037488  5041 0001:000374B0  5044 0001:000374B8
  5045 0001:000374C9  5047 0001:000374D2  5048 0001:000374DC  5050 0001:000374E3
  5051 0001:000374F1  5052 0001:000374FB  5053 0001:00037525  5060 0001:00037528
  5061 0001:0003754A  5062 0001:00037552  5064 0001:00037564  5065 0001:00037571
  5066 0001:00037579  5067 0001:00037584  5062 0001:00037585  5068 0001:000375A5
  5071 0001:000375AC  5072 0001:000375B8  5074 0001:000375C4  5076 0001:000375C9
  5077 0001:000375E6  5081 0001:000375F0  5082 0001:0003762A  5083 0001:00037632
  5084 0001:00037640  5085 0001:0003764C  5086 0001:00037651  5088 0001:00037683
  5090 0001:000376B6  5094 0001:000376C0  5095 0001:000376F3  5096 0001:000376FB
  5097 0001:00037709  5098 0001:00037710  5099 0001:00037715  5101 0001:00037729
  5103 0001:0003775C  5107 0001:00037764  5108 0001:00037797  5109 0001:0003779F
  5110 0001:000377AD  5111 0001:000377B4  5112 0001:000377B9  5114 0001:000377CD
  5116 0001:00037800  5120 0001:00037808  5121 0001:0003783F  5122 0001:00037847
  5123 0001:00037855  5125 0001:00037870  5127 0001:000378A3  5131 0001:000378AC
  5132 0001:000378E3  5133 0001:000378EB  5134 0001:000378F9  5136 0001:00037914
  5138 0001:00037947  5142 0001:00037950  5143 0001:00037983  5144 0001:0003798B
  5145 0001:00037999  5146 0001:000379A6  5148 0001:000379B8  5150 0001:000379EB
  5154 0001:000379F4  5155 0001:00037A27  5156 0001:00037A2F  5157 0001:00037A3D
  5158 0001:00037A4A  5160 0001:00037A5C  5162 0001:00037A8F  5166 0001:00037A98
  5167 0001:00037ACB  5168 0001:00037AD3  5169 0001:00037AE1  5170 0001:00037AEE
  5172 0001:00037B00  5174 0001:00037B33  5178 0001:00037B3C  5179 0001:00037B6F
  5180 0001:00037B77  5181 0001:00037B85  5182 0001:00037B8C  5183 0001:00037B91
  5185 0001:00037BA5  5187 0001:00037BD8  5200 0001:00037BE0  5201 0001:00037BEA
  5203 0001:00037BEC  5204 0001:00037BF4  5206 0001:00037C01  5212 0001:00037C1A
  5218 0001:00037C20  5219 0001:00037C27  5223 0001:00037C32  5224 0001:00037C40
  5225 0001:00037C4A  5226 0001:00037C58  5228 0001:00037C67  5232 0001:00037C85
  5234 0001:00037C8A  5235 0001:00037C91  5236 0001:00037C9B  5245 0001:00037CA0
  5246 0001:00037CA5  5247 0001:00037CAE  5248 0001:00037CB4  5252 0001:00037CB8
  5253 0001:00037CBD  5260 0001:00037CC0  5261 0001:00037CDF  5262 0001:00037CE1
  5263 0001:00037CEA  5264 0001:00037CEE  5265 0001:00037D3D  5271 0001:00037D58
  5272 0001:00037D68  5275 0001:00037D6A  5277 0001:00037D78  5278 0001:00037D89
  5279 0001:00037D8F  5282 0001:00037DA2  5284 0001:00037DA8  5285 0001:00037DAC
  5288 0001:00037DBC  5289 0001:00037DC0  5293 0001:00037DCC  5294 0001:00037DD8
  5296 0001:00037DEC  5312 0001:00037DF4  5313 0001:00037DFB  5317 0001:00037DFC
  5318 0001:00037E02  5320 0001:00037E04  5321 0001:00037E16  5322 0001:00037E1A
  5324 0001:00037E21  5327 0001:00037E3E  5329 0001:00037E46  5330 0001:00037E4C
  5331 0001:00037E50  5333 0001:00037E55  5336 0001:00037E5F  5337 0001:00037E64
  5340 0001:00037E6D  5342 0001:00037E77  5343 0001:00037E7D  5345 0001:00037E94
  5346 0001:00037E9A  5347 0001:00037E9E  5349 0001:00037EA0  5350 0001:00037EAC
  5351 0001:00037EB5  5352 0001:00037EB9  5357 0001:00037EBE  5359 0001:00037EC3
  5360 0001:00037EC9  5363 0001:00037EDA  5364 0001:00037EE6  5365 0001:00037EEF
  5366 0001:00037EF3  5369 0001:00037EF6  5334 0001:00037EF8  5371 0001:00037F17
  5375 0001:00037F3B  5377 0001:00037F53  5380 0001:00037F57  5382 0001:00037F64
  5384 0001:00037F6E  5386 0001:00037F74  5387 0001:00037F78  5390 0001:00037F7E
  5392 0001:00037F87  5393 0001:00037FAB  5395 0001:00037FB5  5399 0001:00037FC0
  5400 0001:00037FC6  5430 0001:00037FC8  5431 0001:00037FCE  5432 0001:00037FD0
  5433 0001:00037FDF  5435 0001:00037FEF  5436 0001:00037FFE  5437 0001:0003800A
  5438 0001:0003801B  5440 0001:0003801F  5454 0001:00038024  5456 0001:00038026
  5457 0001:0003803C  5458 0001:00038041  5460 0001:00038044  5461 0001:00038056
  5462 0001:0003805A  5463 0001:0003806A  5465 0001:0003807F  5466 0001:00038089
  5468 0001:00038093  5469 0001:000380A5  5470 0001:000380B3  5471 0001:000380BF
  5473 0001:000380CF  5475 0001:000380DE  5476 0001:000380F6  5478 0001:00038106
  5479 0001:0003811E  5480 0001:0003812E  5481 0001:00038146  5484 0001:00038151
  5486 0001:00038153  5487 0001:00038169  5488 0001:00038179  5489 0001:0003817A
  5495 0001:00038192  5497 0001:0003819E  5498 0001:000381AC  5499 0001:000381BF
  5503 0001:000381CC  5504 0001:000381D2  5505 0001:000381DC  5507 0001:000381DE
  5510 0001:000381F3  5512 0001:00038201  5514 0001:00038217  5515 0001:00038227
  5516 0001:00038235  5517 0001:00038248  5518 0001:0003825A  5519 0001:0003826C
  5520 0001:00038271  5521 0001:00038289  5522 0001:00038292  5525 0001:0003829B
  5526 0001:000382A3  5529 0001:000382B3  5531 0001:000382BA  5532 0001:000382C4
  5533 0001:000382C8  5510 0001:000382C9  5534 0001:000382D0  5538 0001:000382EA
  5540 0001:000382FD  5548 0001:00038304  5549 0001:00038320  5550 0001:00038324
  5551 0001:0003832E  5553 0001:00038351  5554 0001:0003835B  5555 0001:00038369
  5556 0001:0003837B  5558 0001:00038389  5560 0001:000383A1  5561 0001:000383B1
  5563 0001:000383C9  5566 0001:000383E6  5568 0001:00038417  5575 0001:0003841C
  5576 0001:00038423  5577 0001:00038436  5578 0001:0003843C  5580 0001:00038442
  5581 0001:00038453  5582 0001:00038461  5583 0001:00038471  5585 0001:00038489
  5588 0001:0003849C  5591 0001:000384AC  5592 0001:000384AF  5594 0001:000384CB
  5597 0001:000384D0  5598 0001:000384D3  5601 0001:00038501  5612 0001:00038504
  5613 0001:00038520  5615 0001:00038526  5617 0001:00038531  5618 0001:00038546
  5620 0001:0003854E  5621 0001:0003855F  5622 0001:0003856D  5623 0001:00038579
  5625 0001:00038596  5630 0001:000385A6  5632 0001:000385B5  5633 0001:000385BF
  5635 0001:000385E2  5636 0001:000385EC  5637 0001:000385FA  5638 0001:0003860C
  5640 0001:0003861A  5641 0001:00038632  5642 0001:00038642  5645 0001:00038669
  5647 0001:00038686  5650 0001:000386A3  5653 0001:000386D5  5661 0001:000386E4
  5662 0001:000386ED  5663 0001:000386FB  5665 0001:00038715  5667 0001:00038723
  5668 0001:0003873B  5669 0001:0003874B  5672 0001:00038772  5673 0001:00038785
  5676 0001:00038797  5679 0001:000387AD  5682 0001:000387BE  5684 0001:000387C7
  5685 0001:000387D7  5686 0001:000387EE  5688 0001:00038803  5690 0001:0003880E
  5692 0001:00038822  5696 0001:00038841  5698 0001:0003884D  5710 0001:00038854
  5711 0001:0003885A  5713 0001:00038864  5715 0001:0003886B  5716 0001:00038882
  5717 0001:0003888C  5718 0001:0003889C  5719 0001:000388A8  5720 0001:000388B4
  5722 0001:000388CA  5723 0001:000388E1  5725 0001:000388E4  5726 0001:000388ED
  5727 0001:000388FB  5728 0001:00038918  5729 0001:00038921  5731 0001:0003892E
  5732 0001:00038941  5734 0001:0003894F  5737 0001:0003895F  5739 0001:00038972
  5741 0001:0003897C  5743 0001:0003898F  5744 0001:00038996  5747 0001:000389A8
  5750 0001:000389BA  5752 0001:000389D0  5754 0001:000389DC  5755 0001:000389EC
  5756 0001:000389FC  5757 0001:00038A02  5761 0001:00038A0D  5762 0001:00038A13
  5765 0001:00038A1C  5767 0001:00038A2C  5770 0001:00038A37  5771 0001:00038A47
  5774 0001:00038A69  5775 0001:00038A79  5776 0001:00038A7E  5777 0001:00038A83
  5778 0001:00038A9B  5780 0001:00038AA7  5781 0001:00038AAE  5783 0001:00038AC0
  5784 0001:00038ACE  5785 0001:00038AE0  5786 0001:00038AEE  5788 0001:00038B0C
  5791 0001:00038B29  5794 0001:00038B3C  5796 0001:00038B45  5797 0001:00038B56
  5799 0001:00038B63  5803 0001:00038B6F  5806 0001:00038B88  5807 0001:00038B8E
  5809 0001:00038B94  5812 0001:00038BA0  5813 0001:00038BA4  5816 0001:00038BA8
  5818 0001:00038BAB  5821 0001:00038BB8  5824 0001:00038BDB  5825 0001:00038BE0
  5826 0001:00038BE5  5827 0001:00038BF4  5829 0001:00038C00  5830 0001:00038C07
  5832 0001:00038C19  5833 0001:00038C21  5835 0001:00038C35  5838 0001:00038C3A
  5839 0001:00038C46  5842 0001:00038C57  5844 0001:00038C60  5845 0001:00038C70
  5846 0001:00038C87  5848 0001:00038C9C  5851 0001:00038CA7  5854 0001:00038CC5
  5859 0001:00038CE4  5861 0001:00038CF0  5863 0001:00038D00  5864 0001:00038D09
  5865 0001:00038D0D  5867 0001:00038D24  5869 0001:00038D39  5870 0001:00038D4C
  5871 0001:00038D5A  5876 0001:00038D60  5877 0001:00038D78  5878 0001:00038D7A
  5880 0001:00038D89  5881 0001:00038D9B  5882 0001:00038D9D  5883 0001:00038DB2
  5884 0001:00038DBA  5885 0001:00038DBE  5886 0001:00038DCA  5888 0001:00038DD8
  5889 0001:00038DE3  5890 0001:00038DF4  5892 0001:00038DFD  5893 0001:00038E06
  5894 0001:00038E0F  5896 0001:00038E1B  5897 0001:00038E1F  5898 0001:00038E24
  5900 0001:00038E36  5902 0001:00038E41  5903 0001:00038E4D  5904 0001:00038E55
  5905 0001:00038E5A  5906 0001:00038E63  5908 0001:00038E6D  5909 0001:00038E79
  5911 0001:00038E9A  5914 0001:00038EA0  5915 0001:00038EA4  5916 0001:00038EAA
  5917 0001:00038EBC  5918 0001:00038ED0  5956 0001:00038EE0  5957 0001:00038EFA
  5959 0001:00038F0D  5960 0001:00038F19  5961 0001:00038F22  5964 0001:00038F3B
  5965 0001:00038F49  5966 0001:00038F4C  5967 0001:00038F55  5968 0001:00038F58
  5969 0001:00038F5C  5970 0001:00038F65  5971 0001:00038F68  5972 0001:00038F7D
  5973 0001:00038F8B  5974 0001:00038F99  5976 0001:00038FB1  5979 0001:00038FD2
  5982 0001:00038FF7  5983 0001:00039004  5985 0001:0003900A  5987 0001:0003902D
  5997 0001:00039034  5998 0001:00039045  6000 0001:0003904A  6001 0001:0003904D
  6004 0001:0003904F  6005 0001:0003905D  6008 0001:00039060  6006 0001:00039061
  6009 0001:0003908C  6010 0001:0003909A  6011 0001:0003909D  6019 0001:000390A4
  6020 0001:000390B4  6022 0001:000390C6  6025 0001:000390CB  6027 0001:000390F9
  6028 0001:00039104  6023 0001:00039105  6032 0001:0003910F  6033 0001:00039117
  6035 0001:00039120  6037 0001:00039131  6038 0001:0003913C  6039 0001:0003915D
  6042 0001:0003916B  6043 0001:00039176  6044 0001:00039197  6047 0001:000391A3
  6033 0001:000391A4  6049 0001:000391AD  6051 0001:000391C4  6052 0001:000391D3
  6053 0001:000391D8  6054 0001:000391DD  6056 0001:000391E6  6058 0001:000391F5
  6061 0001:000391F7  6062 0001:0003920C  6064 0001:00039217  6067 0001:00039223
  6069 0001:00039227  6071 0001:0003923F  6072 0001:00039257  6075 0001:00039259
  6076 0001:00039267  6078 0001:0003926F  6079 0001:00039274  6080 0001:00039279
  6082 0001:0003928D  6087 0001:0003928F  6089 0001:00039295  6090 0001:000392A5
  6091 0001:000392C0  6093 0001:000392D4  6095 0001:000392DA  6096 0001:000392E3
  6097 0001:000392F8  6099 0001:00039303  6103 0001:00039314  6106 0001:00039326
  6109 0001:00039337  6112 0001:00039350  6115 0001:00039361  6118 0001:00039378
  6121 0001:00039389  6124 0001:000393A0  6127 0001:000393B1  6130 0001:000393C3
  6134 0001:000393D1  6137 0001:000393E3  6141 0001:000393F1  6144 0001:00039402
  6147 0001:0003940F  6149 0001:0003941B  6150 0001:0003942B  6151 0001:0003943C
  6155 0001:00039448  6157 0001:0003945A  6159 0001:00039461  6064 0001:00039465
  6162 0001:00039471  6163 0001:0003947B  6169 0001:00039484  6170 0001:00039492
  6171 0001:000394A0  6173 0001:000394CB  6180 0001:000394D4  6181 0001:000394DD
  6182 0001:000394EB  6184 0001:00039500  6186 0001:00039506  6187 0001:0003950F
  6192 0001:00039527  6193 0001:0003952C  6198 0001:00039534  6199 0001:00039535
  6200 0001:00039541  6202 0001:00039545  6204 0001:0003954F  6205 0001:00039561
  6206 0001:00039566  6207 0001:0003956E  6209 0001:00039574  6214 0001:00039578
  6215 0001:00039582  6216 0001:0003958B  6217 0001:00039591  6218 0001:00039596
  6219 0001:0003959C  6223 0001:000395A0  6224 0001:000395A5  6232 0001:000395A8
  6233 0001:000395AF  6237 0001:000395B0  6238 0001:000395B2  6239 0001:000395B5
  6241 0001:000395B8  6242 0001:000395C4  6243 0001:000395CE  6244 0001:000395DC
  6245 0001:000395EA  6246 0001:000395F5  6247 0001:000395FC  6248 0001:00039610
  6249 0001:00039618  6250 0001:00039624  6252 0001:0003962E  6253 0001:00039638
  6254 0001:0003963E  6255 0001:00039648  6256 0001:00039655  6258 0001:00039677
  6261 0001:00039690  6263 0001:000396A2  6268 0001:000396A8  6269 0001:000396AB
  6270 0001:000396B7  6273 0001:000396BC  6274 0001:000396BF  6275 0001:000396D7
  6276 0001:000396E4  6291 0001:000396E8  6293 0001:00039700  6294 0001:00039707
  6297 0001:00039718  6298 0001:00039726  6301 0001:00039734  6302 0001:0003973B
  6303 0001:00039743  6304 0001:0003974C  6305 0001:00039755  6308 0001:0003975E
  6309 0001:00039765  6310 0001:0003976F  6311 0001:00039778  6312 0001:0003977E
  6315 0001:00039790  6316 0001:0003979D  6317 0001:000397A7  6319 0001:000397AC
  6320 0001:000397BC  6322 0001:000397BE  6324 0001:000397D1  6326 0001:000397DC
  6328 0001:000397E6  6329 0001:000397EE  6331 0001:000397F7  6333 0001:00039800
  6334 0001:00039805  6335 0001:0003980C  6339 0001:00039815  6340 0001:0003981A
  6341 0001:00039821  6344 0001:00039828  6346 0001:00039835  6348 0001:0003984E
  6349 0001:0003986F  6350 0001:0003987C  6351 0001:0003989E  6352 0001:000398AE
  6353 0001:000398CD  6354 0001:000398D9  6355 0001:000398E7  6356 0001:000398EF
  6357 0001:000398FA  6358 0001:000398FE  6359 0001:00039902  6346 0001:00039908
  6362 0001:00039911  6363 0001:0003991C  6364 0001:00039927  6366 0001:00039930
  6367 0001:0003993B  6371 0001:00039948  6372 0001:0003994B  6373 0001:00039956
  6375 0001:00039959  6377 0001:0003995F  6378 0001:0003996A  6380 0001:00039994
  6382 0001:000399BE  6384 0001:000399E8  6386 0001:00039A12  6388 0001:00039A18
  6389 0001:00039A20  6391 0001:00039A2C  6393 0001:00039A4A  6395 0001:00039A4D
  6397 0001:00039A56  6398 0001:00039A61  6401 0001:00039A8D  6404 0001:00039A9A
  6406 0001:00039AA5  6410 0001:00039AD1  6411 0001:00039ADB  6413 0001:00039ADD
  6418 0001:00039AF4  6419 0001:00039AFE  6422 0001:00039B06  6424 0001:00039B0F
  6425 0001:00039B19  6426 0001:00039B28  6427 0001:00039B37  6431 0001:00039B48
  6432 0001:00039B52  6433 0001:00039B61  6434 0001:00039B70  6437 0001:00039B7F
  6438 0001:00039B85  6440 0001:00039B91  6445 0001:00039BC5  6447 0001:00039BD6
  6448 0001:00039BDD  6449 0001:00039BE7  6451 0001:00039BF8  6452 0001:00039BFF
  6453 0001:00039C07  6455 0001:00039C18  6456 0001:00039C1F  6457 0001:00039C29
  6459 0001:00039C3A  6464 0001:00039C83  6469 0001:00039CCC  6470 0001:00039CD3
  6474 0001:00039D3C  6475 0001:00039D47  6476 0001:00039D52  6477 0001:00039D5D
  6478 0001:00039D68  6479 0001:00039D73  6480 0001:00039D7E  6481 0001:00039D89
  6486 0001:00039D8C  6487 0001:00039D92  6488 0001:00039D99  6491 0001:00039DB4
  6492 0001:00039DCA  6494 0001:00039DD6  6495 0001:00039DE0  6496 0001:00039DF4
  6497 0001:00039DFD  6499 0001:00039E0F  6500 0001:00039E1B  6501 0001:00039E22
  6503 0001:00039E4D  6504 0001:00039E59  6509 0001:00039E60  6510 0001:00039E71
  6511 0001:00039E7C  6513 0001:00039E94  6517 0001:00039ED4  6520 0001:00039EDC
  6521 0001:00039EDF  6522 0001:00039EE5  6523 0001:00039EF8  6524 0001:00039F07
  6528 0001:00039F0C  6530 0001:00039F1B  6531 0001:00039F23  6533 0001:00039F35
  6537 0001:00039F38  6538 0001:00039F4F  6542 0001:00039F50  6543 0001:00039F57
  6548 0001:00039F58  6549 0001:00039F5C  6550 0001:00039F63  6552 0001:00039F8A
  6553 0001:00039F95  6556 0001:00039F9C  6557 0001:00039F9F  6558 0001:00039FA4
  6559 0001:00039FAA  6560 0001:00039FB9  6564 0001:00039FBC  6565 0001:00039FC4
  6566 0001:00039FCB  6569 0001:00039FCC  6570 0001:00039FD2  6571 0001:00039FE4
  6578 0001:0003A008  6579 0001:0003A03D  6581 0001:0003A047  6582 0001:0003A058
  6583 0001:0003A066  6584 0001:0003A071  6585 0001:0003A080  6586 0001:0003A09B
  6587 0001:0003A0AA  6588 0001:0003A0B9  6589 0001:0003A0C8  6590 0001:0003A0D8
  6593 0001:0003A111  6595 0001:0003A150  6603 0001:0003A164  6604 0001:0003A197
  6606 0001:0003A1AE  6607 0001:0003A1BF  6608 0001:0003A1CD  6609 0001:0003A1D8
  6610 0001:0003A1E9  6609 0001:0003A237  6611 0001:0003A23A  6612 0001:0003A255
  6613 0001:0003A264  6614 0001:0003A273  6615 0001:0003A282  6616 0001:0003A292
  6619 0001:0003A2CB  6621 0001:0003A305  6629 0001:0003A318  6630 0001:0003A340
  6631 0001:0003A345  6632 0001:0003A354  6633 0001:0003A360  6634 0001:0003A36A
  6635 0001:0003A378  6636 0001:0003A382  6638 0001:0003A395  6639 0001:0003A3B7
  6640 0001:0003A3F0  6641 0001:0003A406  6636 0001:0003A407  6643 0001:0003A419
  6644 0001:0003A426  6646 0001:0003A45B  6652 0001:0003A470  6653 0001:0003A47F
  6654 0001:0003A48B  6655 0001:0003A495  6656 0001:0003A4A3  6657 0001:0003A4C0
  6659 0001:0003A4D3  6661 0001:0003A4EB  6675 0001:0003A4F4  6676 0001:0003A500
  6677 0001:0003A50A  6678 0001:0003A50D  6679 0001:0003A52B  6681 0001:0003A534
  6682 0001:0003A55B  6683 0001:0003A55D  6686 0001:0003A615  6687 0001:0003A61E
  6688 0001:0003A625  6690 0001:0003A647  6692 0001:0003A671  6694 0001:0003A69B
  6695 0001:0003A6B3  6696 0001:0003A6CB  6697 0001:0003A6E3  6698 0001:0003A6ED
  6699 0001:0003A6F9  6701 0001:0003A71E  6702 0001:0003A72C  6703 0001:0003A738
  6704 0001:0003A753  6705 0001:0003A773  6706 0001:0003A797  6707 0001:0003A79E
  6708 0001:0003A7AA  6712 0001:0003A7B6  6713 0001:0003A7BD  6714 0001:0003A7C4
  6719 0001:0003A7CE  6722 0001:0003A7D8  6723 0001:0003A7DD  6726 0001:0003A7E9
  6728 0001:0003A800  6729 0001:0003A80C  6731 0001:0003A828  6732 0001:0003A843
  6734 0001:0003A85D  6738 0001:0003A87F  6743 0001:0003A889  6747 0001:0003A8B0
  6750 0001:0003A8DB  6752 0001:0003A8E4  6753 0001:0003A8E7  6758 0001:0003A91E
  6759 0001:0003A925  6760 0001:0003A933  6762 0001:0003A959  6764 0001:0003A968
  6773 0001:0003A978  6774 0001:0003A98C  6775 0001:0003A996  6776 0001:0003A9A4
  6777 0001:0003A9BD  6779 0001:0003A9C6  6780 0001:0003A9F4  6783 0001:0003AA2A
  6785 0001:0003AA59  6788 0001:0003AA60  6789 0001:0003AA66  6790 0001:0003AA6B
  6791 0001:0003AA75  6792 0001:0003AA83  6793 0001:0003AA9C  6795 0001:0003AAA5
  6796 0001:0003AAB2  6799 0001:0003AADF  6801 0001:0003AAF4  6804 0001:0003AAFC
  6805 0001:0003AB19  6806 0001:0003AB1C  6807 0001:0003AB29  6808 0001:0003AB37
  6809 0001:0003AB48  6812 0001:0003AB65  6813 0001:0003AB68  6815 0001:0003AB78
  6816 0001:0003AB8A  6818 0001:0003ABB3  6820 0001:0003ABCB  6824 0001:0003ABE3
  6825 0001:0003ABF3  6827 0001:0003AC1B  6833 0001:0003AC2C  6834 0001:0003AC60
  6835 0001:0003AC6C  6837 0001:0003AC78  6838 0001:0003AC98  6841 0001:0003ACC4
  6843 0001:0003ACE8  6845 0001:0003AD0A  6847 0001:0003AD20  6848 0001:0003AD30
  6849 0001:0003AD3D  6851 0001:0003AD4D  6854 0001:0003ADC6  6855 0001:0003ADD8
  6857 0001:0003AE28  6858 0001:0003AE3B  6859 0001:0003AEB3  6864 0001:0003AF10
  6865 0001:0003AF3B  6866 0001:0003AF4C  6867 0001:0003AF5B  6868 0001:0003AF6A
  6869 0001:0003AF8A  6874 0001:0003B06E  6876 0001:0003B0B0  6877 0001:0003B0D3
  6878 0001:0003B0E5  6879 0001:0003B111  6901 0001:0003B118  6902 0001:0003B124
  6903 0001:0003B128  6904 0001:0003B135  6905 0001:0003B13F  6906 0001:0003B14D
  6907 0001:0003B15D  6908 0001:0003B16D  6909 0001:0003B17D  6911 0001:0003B185
  6912 0001:0003B193  6913 0001:0003B1A2  6915 0001:0003B1AA  6916 0001:0003B1B1
  6918 0001:0003B1BC  6919 0001:0003B1C8  6921 0001:0003B1D3  6922 0001:0003B1DD
  6923 0001:0003B1EB  6924 0001:0003B1FA  6930 0001:0003B20B  6932 0001:0003B21F
  6948 0001:0003B26C  6949 0001:0003B27A  6951 0001:0003B27E  6952 0001:0003B28B
  6953 0001:0003B295  6954 0001:0003B2A3  6955 0001:0003B2B3  6956 0001:0003B2C3
  6958 0001:0003B2CB  6959 0001:0003B2D2  6961 0001:0003B2D6  6962 0001:0003B2DD
  6964 0001:0003B2E8  6965 0001:0003B2F4  6970 0001:0003B305  6972 0001:0003B319
  6975 0001:0003B350  6976 0001:0003B356  6977 0001:0003B363  6978 0001:0003B36F
  6983 0001:0003B374  6984 0001:0003B378  6985 0001:0003B37F  6986 0001:0003B38A
  6987 0001:0003B393  6992 0001:0003B398  6993 0001:0003B3A4  6994 0001:0003B3AB
  6998 0001:0003B3E3  7032 0001:0003B3EC  7035 0001:0003B411  7036 0001:0003B418
  7037 0001:0003B41B  7038 0001:0003B421  7039 0001:0003B424  7040 0001:0003B42F
  7042 0001:0003B45C  7047 0001:0003B468  7048 0001:0003B479  7049 0001:0003B480
  7050 0001:0003B490  7051 0001:0003B49A  7052 0001:0003B4AA  7057 0001:0003B4B0
  7058 0001:0003B4D4  7059 0001:0003B4DF  7060 0001:0003B4EA  7062 0001:0003B4F6
  7063 0001:0003B521  7064 0001:0003B54C  7066 0001:0003B593  7068 0001:0003B5E3
  7070 0001:0003B619  7072 0001:0003B656  7074 0001:0003B65A  7075 0001:0003B67C
  7077 0001:0003B6C0  7080 0001:0003B760  7081 0001:0003B778  7083 0001:0003B785
  7085 0001:0003B792  7086 0001:0003B7B7  7087 0001:0003B7E2  7088 0001:0003B807
  7090 0001:0003B82C  7092 0001:0003B873  7097 0001:0003B8F8  7098 0001:0003B901
  7099 0001:0003B908  7100 0001:0003B918  7101 0001:0003B91B  7102 0001:0003B92B
  7118 0001:0003B930  7119 0001:0003B934  7121 0001:0003B943  7122 0001:0003B955
  7123 0001:0003B95D  7124 0001:0003B962  7125 0001:0003B96B  7127 0001:0003B970
  7128 0001:0003B9A9  7129 0001:0003B9BB  7130 0001:0003B9C7  7131 0001:0003B9D3
  7132 0001:0003B9DF  7133 0001:0003B9EB  7134 0001:0003B9F7  7135 0001:0003BA03
  7136 0001:0003BA0F  7137 0001:0003BA1D  7138 0001:0003BA22  7139 0001:0003BA31
  7140 0001:0003BA37  7141 0001:0003BA3B  7143 0001:0003BA3F  7144 0001:0003BA46
  7145 0001:0003BA55  7147 0001:0003BA64  7149 0001:0003BA6C  7150 0001:0003BA7C
  7152 0001:0003BAAC  7153 0001:0003BAB6  7154 0001:0003BAC5  7155 0001:0003BADE
  7159 0001:0003BB24  7160 0001:0003BB31  7162 0001:0003BB5A  7163 0001:0003BB69
  7164 0001:0003BB78  7165 0001:0003BB7D  7166 0001:0003BB82  7167 0001:0003BB92
  7168 0001:0003BBA1  7169 0001:0003BBAF  7170 0001:0003BBC2  7172 0001:0003BC03
  7174 0001:0003BC19  7175 0001:0003BC3B  7176 0001:0003BC74  7178 0001:0003BC7C
  7179 0001:0003BC82  7182 0001:0003BC8F  7183 0001:0003BC9E  7186 0001:0003BCA1
  7187 0001:0003BCA7  7172 0001:0003BCA8  7189 0001:0003BCBC  7191 0001:0003BCCC
  7192 0001:0003BCDC  7193 0001:0003BCE8  7194 0001:0003BCFE  7196 0001:0003BD07
  7198 0001:0003BD28  7201 0001:0003BD40  7202 0001:0003BD4F  7203 0001:0003BD61
  7205 0001:0003BD73  7206 0001:0003BD80  7208 0001:0003BD84  7210 0001:0003BDAB
  7211 0001:0003BDCA  7212 0001:0003BDE9  7213 0001:0003BE02  7216 0001:0003BE43
  7218 0001:0003BE96  7230 0001:0003BED4  7231 0001:0003BF0D  7232 0001:0003BF0F
  7233 0001:0003BF25  7235 0001:0003BF4A  7236 0001:0003BF93  7238 0001:0003BFCC
  7239 0001:0003BFEF  7240 0001:0003BFF4  7243 0001:0003C0B7  7244 0001:0003C0D2
  7246 0001:0003C0EA  7248 0001:0003C114  7250 0001:0003C12C  7252 0001:0003C156
  7254 0001:0003C180  7256 0001:0003C1AA  7258 0001:0003C1D4  7260 0001:0003C1FE
  7262 0001:0003C228  7265 0001:0003C252  7268 0001:0003C27C  7271 0001:0003C2A9
  7274 0001:0003C2D6  7277 0001:0003C303  7280 0001:0003C330  7283 0001:0003C35D
  7287 0001:0003C38A  7288 0001:0003C3A4  7289 0001:0003C3BE  7290 0001:0003C3D5
  7292 0001:0003C3EC  7293 0001:0003C400  7301 0001:0003C4F5  7292 0001:0003C4F6
  7305 0001:0003C502  7306 0001:0003C50C  7308 0001:0003C513  7311 0001:0003C565
  7306 0001:0003C567  7315 0001:0003C56E  7316 0001:0003C57C  7320 0001:0003C586
  7322 0001:0003C594  7323 0001:0003C59F  7324 0001:0003C5AA  7330 0001:0003C5B4
  7333 0001:0003C5BB  7336 0001:0003C601  7374 0001:0003C700  7375 0001:0003C723
  7376 0001:0003C725  7379 0001:0003C7E8  7380 0001:0003C803  7382 0001:0003C81B
  7384 0001:0003C845  7386 0001:0003C85D  7388 0001:0003C887  7390 0001:0003C8B1
  7392 0001:0003C8DB  7394 0001:0003C905  7396 0001:0003C92F  7398 0001:0003C959
  7400 0001:0003C983  7403 0001:0003C9AD  7406 0001:0003C9D7  7409 0001:0003CA04
  7412 0001:0003CA31  7415 0001:0003CA5E  7418 0001:0003CA8B  7421 0001:0003CAB8
  7424 0001:0003CAE5  7428 0001:0003CB12  7429 0001:0003CB2C  7430 0001:0003CB46
  7431 0001:0003CB5D  7433 0001:0003CB74  7434 0001:0003CB88  7443 0001:0003CC93
  7433 0001:0003CC94  7447 0001:0003CCA0  7448 0001:0003CCAA  7450 0001:0003CCAC
  7453 0001:0003CD0E  7448 0001:0003CD0F  7457 0001:0003CD16  7458 0001:0003CD24
  7462 0001:0003CD2C  7464 0001:0003CD3A  7465 0001:0003CD45  7466 0001:0003CD50
  7472 0001:0003CD58  7475 0001:0003CD5F  7478 0001:0003CDA4  7482 0001:0003CECC
  7483 0001:0003CEE2  7484 0001:0003CEE4  7487 0001:0003CF98  7488 0001:0003CFB3
  7490 0001:0003CFD5  7491 0001:0003CFEA  7493 0001:0003D017  7501 0001:0003D034
  7507 0001:0003D03B  7508 0001:0003D049  7512 0001:0003D051  7514 0001:0003D061
  7515 0001:0003D06C  7516 0001:0003D077  7517 0001:0003D085  7521 0001:0003D08D
  7522 0001:0003D098  7523 0001:0003D0A3  7527 0001:0003D0CD  7560 0001:0003D0D4
  7561 0001:0003D10D  7563 0001:0003D10F  7566 0001:0003D15D  7568 0001:0003D162
  7569 0001:0003D17A  7571 0001:0003D180  7561 0001:0003D181  7572 0001:0003D1AB
  7574 0001:0003D1CC  7575 0001:0003D223  7577 0001:0003D22D  7578 0001:0003D240
  7579 0001:0003D24D  7580 0001:0003D25B  7581 0001:0003D269  7582 0001:0003D274
  7583 0001:0003D290  7584 0001:0003D2AC  7585 0001:0003D2B8  7586 0001:0003D2CA
  7588 0001:0003D319  7595 0001:0003D34C  7596 0001:0003D355  7597 0001:0003D35B
  7598 0001:0003D365  7599 0001:0003D371  7600 0001:0003D384  7601 0001:0003D392
  7604 0001:0003D398  7605 0001:0003D3BB  7606 0001:0003D3C0  7609 0001:0003D483
  7610 0001:0003D49E  7612 0001:0003D4B6  7614 0001:0003D4E0  7616 0001:0003D50A
  7618 0001:0003D534  7620 0001:0003D55E  7622 0001:0003D588  7625 0001:0003D5B2
  7626 0001:0003D5CC  7627 0001:0003D5E6  7629 0001:0003D5FD  7632 0001:0003D627
  7635 0001:0003D654  7638 0001:0003D681  7641 0001:0003D6AE  7644 0001:0003D6DB
  7648 0001:0003D708  7651 0001:0003D71F  7652 0001:0003D724  7653 0001:0003D728
  7654 0001:0003D72C  7655 0001:0003D740  7659 0001:0003D795  7663 0001:0003D7D9
  7664 0001:0003D7F1  7666 0001:0003D832  7672 0001:0003D8BB  7673 0001:0003D8D9
  7676 0001:0003D8F2  7678 0001:0003D933  7679 0001:0003D93A  7680 0001:0003D94B
  7681 0001:0003D96D  7682 0001:0003D976  7683 0001:0003D97F  7685 0001:0003D984
  7686 0001:0003D995  7687 0001:0003D9B1  7688 0001:0003D9B9  7693 0001:0003DA85
  7694 0001:0003DA97  7695 0001:0003DAA9  7696 0001:0003DAAD  7654 0001:0003DAAE
  7698 0001:0003DAB5  7700 0001:0003DAE5  7706 0001:0003DB02  7707 0001:0003DB0C
  7709 0001:0003DB0E  7712 0001:0003DB70  7707 0001:0003DB71  7717 0001:0003DB7B
  7723 0001:0003DB85  7724 0001:0003DB97  7728 0001:0003DBA4  7730 0001:0003DBB6
  7731 0001:0003DBC1  7732 0001:0003DBCC  7737 0001:0003DBD9  7742 0001:0003DBF2
  7743 0001:0003DBF7  7746 0001:0003DC0C  7748 0001:0003DC2F  7750 0001:0003DC34
  7751 0001:0003DC3D  7752 0001:0003DC4F  7755 0001:0003DC60  7758 0001:0003DC7D
  7760 0001:0003DCA0  7761 0001:0003DCDC  7762 0001:0003DD05  7763 0001:0003DD2E
  7764 0001:0003DD57  7765 0001:0003DD80  7767 0001:0003DD8A  7768 0001:0003DD97
  7769 0001:0003DDA6  7771 0001:0003DDAA  7773 0001:0003DDC1  7775 0001:0003DDD9
  7776 0001:0003DDEE  7778 0001:0003DDF0  7771 0001:0003DDF3  7780 0001:0003DDF6
  7782 0001:0003DE0B  7784 0001:0003DE23  7785 0001:0003DE38  7787 0001:0003DE3A
  7780 0001:0003DE3D  7788 0001:0003DE40  7789 0001:0003DE4D  7790 0001:0003DE51
  7792 0001:0003DE5F  7793 0001:0003DE67  7797 0001:0003DE85  7798 0001:0003DE8E
  7799 0001:0003DEA0  7805 0001:0003DF00  7809 0001:0003E01C  7810 0001:0003E032
  7811 0001:0003E034  7814 0001:0003E0E8  7815 0001:0003E103  7817 0001:0003E125
  7818 0001:0003E13A  7820 0001:0003E167  7828 0001:0003E184  7834 0001:0003E18B
  7835 0001:0003E199  7839 0001:0003E1A1  7841 0001:0003E1B1  7842 0001:0003E1BC
  7843 0001:0003E1C7  7844 0001:0003E1D5  7848 0001:0003E1DD  7849 0001:0003E1E8
  7850 0001:0003E1F3  7854 0001:0003E21D  7858 0001:0003E224  7859 0001:0003E23A
  7860 0001:0003E23C  7863 0001:0003E2F0  7864 0001:0003E30B  7865 0001:0003E32D
  7866 0001:0003E342  7868 0001:0003E36F  7873 0001:0003E38C  7882 0001:0003E393
  7883 0001:0003E3A1  7887 0001:0003E3A9  7889 0001:0003E3B9  7890 0001:0003E3C4
  7891 0001:0003E3CF  7892 0001:0003E3DD  7896 0001:0003E3E5  7897 0001:0003E3F0
  7898 0001:0003E3FB  7902 0001:0003E425  7907 0001:0003E42C  7908 0001:0003E432
  7909 0001:0003E439  7910 0001:0003E449  7911 0001:0003E44C  7925 0001:0003E450
  7926 0001:0003E45B  7927 0001:0003E473  7928 0001:0003E484  7929 0001:0003E4A3
  7930 0001:0003E4A6  7931 0001:0003E4A9  7933 0001:0003E4C9  7935 0001:0003E4F9
  7942 0001:0003E500  7943 0001:0003E52A  7944 0001:0003E52F  7945 0001:0003E537
  7946 0001:0003E53F  7947 0001:0003E547  7948 0001:0003E54F  7949 0001:0003E557
  7950 0001:0003E55F  7951 0001:0003E56C  7952 0001:0003E579  7953 0001:0003E586
  7954 0001:0003E593  7955 0001:0003E5A0  7956 0001:0003E5AD  7959 0001:0003E5B1
  7961 0001:0003E5B6  7962 0001:0003E5CE  7963 0001:0003E5D1  7964 0001:0003E5E9
  7967 0001:0003E5EE  7968 0001:0003E5F7  7969 0001:0003E60B  7971 0001:0003E63D
  7972 0001:0003E66F  7975 0001:0003E714  7977 0001:0003E72C  7978 0001:0003E739
  7981 0001:0003E74A  7982 0001:0003E758  7985 0001:0003E766  7986 0001:0003E76D
  7987 0001:0003E775  7988 0001:0003E77E  7989 0001:0003E787  7992 0001:0003E790
  7993 0001:0003E797  7994 0001:0003E7A1  7995 0001:0003E7AA  7996 0001:0003E7B0
  7999 0001:0003E7C2  8000 0001:0003E7CF  8001 0001:0003E7D9  8004 0001:0003E7E0
  8005 0001:0003E7F8  8007 0001:0003E805  8008 0001:0003E811  8009 0001:0003E823
  8010 0001:0003E83F  8011 0001:0003E847  8012 0001:0003E858  8015 0001:0003E8B7
  8017 0001:0003E8BC  8018 0001:0003E8E0  8019 0001:0003E8E5  8022 0001:0003EA00
  8023 0001:0003EA05  8026 0001:0003EA34  8031 0001:0003EA6F  8032 0001:0003EA76
  8036 0001:0003EA86  8037 0001:0003EA8D  8038 0001:0003EA94  8042 0001:0003EAA4
  8043 0001:0003EAB2  8044 0001:0003EABE  8045 0001:0003EACB  8049 0001:0003EADC
  8050 0001:0003EAE3  8051 0001:0003EAED  8053 0001:0003EAFA  8054 0001:0003EB01
  8061 0001:0003EB11  8063 0001:0003EB1E  8064 0001:0003EB25  8065 0001:0003EB3A
  8071 0001:0003EB62  8072 0001:0003EB69  8073 0001:0003EB74  8074 0001:0003EB86
  8075 0001:0003EB94  8076 0001:0003EBB4  8078 0001:0003EBC8  8083 0001:0003EBE6
  8085 0001:0003EBF8  8087 0001:0003EC03  8089 0001:0003EC0A  8091 0001:0003EC1D
  8093 0001:0003EC26  8094 0001:0003EC2B  8095 0001:0003EC35  8099 0001:0003EC41
  8100 0001:0003EC46  8101 0001:0003EC50  8104 0001:0003EC5A  8106 0001:0003EC6A
  8108 0001:0003EC8C  8109 0001:0003ECB3  8110 0001:0003ECC0  8111 0001:0003ECEB
  8112 0001:0003ED01  8113 0001:0003ED26  8114 0001:0003ED32  8115 0001:0003ED43
  8116 0001:0003ED4B  8117 0001:0003ED59  8118 0001:0003ED60  8119 0001:0003ED67
  8106 0001:0003ED6D  8122 0001:0003ED79  8123 0001:0003ED87  8124 0001:0003ED92
  8126 0001:0003ED9B  8127 0001:0003EDA6  8131 0001:0003EDB3  8132 0001:0003EDB6
  8133 0001:0003EDC1  8135 0001:0003EDC4  8137 0001:0003EDCA  8138 0001:0003EDD8
  8140 0001:0003EE02  8142 0001:0003EE2C  8144 0001:0003EE56  8146 0001:0003EE80
  8148 0001:0003EE86  8149 0001:0003EE8E  8151 0001:0003EE9A  8155 0001:0003EEE0
  8157 0001:0003EEEC  8159 0001:0003EEF5  8160 0001:0003EF00  8164 0001:0003EF5D
  8167 0001:0003EF6A  8169 0001:0003EF75  8174 0001:0003EFD3  8175 0001:0003EFDD
  8180 0001:0003EFE9  8181 0001:0003EFF1  8183 0001:0003F009  8184 0001:0003F01D
  8187 0001:0003F02B  8188 0001:0003F047  8190 0001:0003F053  8191 0001:0003F05D
  8192 0001:0003F066  8194 0001:0003F07B  8197 0001:0003F0B9  8200 0001:0003F0E9
  8201 0001:0003F0FD  8202 0001:0003F121  8203 0001:0003F145  8205 0001:0003F14E
  8206 0001:0003F172  8207 0001:0003F17E  8208 0001:0003F188  8209 0001:0003F190
  8210 0001:0003F199  8213 0001:0003F1BB  8215 0001:0003F1D0  8216 0001:0003F1E2
  8217 0001:0003F1F0  8219 0001:0003F201  8220 0001:0003F213  8222 0001:0003F222
  8224 0001:0003F22A  8225 0001:0003F234  8226 0001:0003F23E  8227 0001:0003F248
  8228 0001:0003F252  8229 0001:0003F25C  8230 0001:0003F266  8232 0001:0003F270
  8234 0001:0003F28B  8236 0001:0003F2BE  8238 0001:0003F2D9  8239 0001:0003F2E4
  8243 0001:0003F319  8247 0001:0003F34C  8248 0001:0003F35A  8252 0001:0003F38F
  8254 0001:0003F3A2  8256 0001:0003F3BD  8258 0001:0003F3D8  8260 0001:0003F3F3
  8262 0001:0003F42F  8265 0001:0003F465  8267 0001:0003F46E  8268 0001:0003F484
  8270 0001:0003F49A  8272 0001:0003F4A3  8274 0001:0003F4B9  8276 0001:0003F4F5
  8277 0001:0003F512  8279 0001:0003F51B  8282 0001:0003F531  8285 0001:0003F55C
  8286 0001:0003F566  8287 0001:0003F570  8288 0001:0003F593  8289 0001:0003F5B5
  8291 0001:0003F5D3  8292 0001:0003F5F6  8293 0001:0003F618  8295 0001:0003F636
  8297 0001:0003F648  8298 0001:0003F66B  8299 0001:0003F68D  8301 0001:0003F6AB
  8302 0001:0003F6CE  8303 0001:0003F6F0  8306 0001:0003F70E  8308 0001:0003F720
  8309 0001:0003F743  8310 0001:0003F765  8312 0001:0003F783  8313 0001:0003F7A6
  8314 0001:0003F7C8  8317 0001:0003F7E6  8318 0001:0003F7F3  8320 0001:0003F7F8
  8321 0001:0003F828  8324 0001:0003F82A  8325 0001:0003F83B  8326 0001:0003F846
  8327 0001:0003F862  8328 0001:0003F86E  8329 0001:0003F87D  8330 0001:0003F885
  8334 0001:0003F892  8335 0001:0003F89D  8336 0001:0003F8A5  8337 0001:0003F8AD
  8339 0001:0003F8CF  8341 0001:0003F8F1  8343 0001:0003F913  8344 0001:0003F918
  8345 0001:0003F923  8346 0001:0003F92E  8347 0001:0003F939  8348 0001:0003F942
  8349 0001:0003F94D  8354 0001:0003F964  8357 0001:0003F96E  8358 0001:0003F979
  8360 0001:0003F986  8361 0001:0003F98D  8366 0001:0003F99D  8367 0001:0003F9A2
  8369 0001:0003F9B2  8375 0001:0003F9CF  8376 0001:0003F9D9  8377 0001:0003F9EA
  8378 0001:0003FA0B  8379 0001:0003FA18  8383 0001:0003FA2D  8384 0001:0003FA3A
  8385 0001:0003FA4A  8386 0001:0003FA7E  8387 0001:0003FA8A  8388 0001:0003FAA1
  8391 0001:0003FAE1  8392 0001:0003FAF3  8394 0001:0003FB29  8395 0001:0003FB37
  8396 0001:0003FB53  8398 0001:0003FB72  8399 0001:0003FB7E  8401 0001:0003FB92
  8404 0001:0003FB9B  8405 0001:0003FBC2  8408 0001:0003FBDC  8410 0001:0003FBE6
  8411 0001:0003FBF0  8412 0001:0003FBFF  8414 0001:0003FC59  8415 0001:0003FC6D
  8417 0001:0003FCC7  8418 0001:0003FCDB  8420 0001:0003FD35  8421 0001:0003FD49
  8423 0001:0003FDA3  8425 0001:0003FDFD  8426 0001:0003FE11  8428 0001:0003FE1C
  8429 0001:0003FE33  8430 0001:0003FE4D  8432 0001:0003FE6B  8434 0001:0003FE72
  8435 0001:0003FE77  8438 0001:0003FEA0  8439 0001:0003FEBA  8440 0001:0003FECA
  8441 0001:0003FECF  8442 0001:0003FEED  8443 0001:0003FEFE  8446 0001:0003FF24
  8447 0001:0003FF3E  8449 0001:0003FF6A  8451 0001:0003FF84  8453 0001:0003FF8E
  8455 0001:0003FFA4  8459 0001:0003FFD4  8460 0001:0003FFF1  8462 0001:00040027
  8464 0001:00040045  8466 0001:0004007D  8467 0001:0004009A  8469 0001:000400D0
  8472 0001:000400EE  8473 0001:000400F8  8474 0001:00040106  8475 0001:00040115
  8478 0001:0004016B  8480 0001:0004017E  8481 0001:000401A6  8482 0001:000401C1
  8483 0001:000401CD  8484 0001:000401DA  8486 0001:000401E1  8488 0001:00040215
  8489 0001:00040232  8491 0001:00040268  8493 0001:00040286  8494 0001:0004029E
  8496 0001:000402B3  8501 0001:000402CA  8502 0001:000402FD  8504 0001:00040319
  8506 0001:0004032C  8508 0001:0004033E  8510 0001:00040350  8512 0001:00040359
  8513 0001:00040363  8514 0001:00040373  8515 0001:0004038E  8517 0001:000403AA
  8518 0001:000403BA  8522 0001:000403C6  8524 0001:000403E3  8525 0001:000403F3
  8526 0001:00040403  8527 0001:00040410  8528 0001:0004041E  8533 0001:00040430
  8534 0001:0004043E  8538 0001:00040448  8540 0001:00040456  8541 0001:00040461
  8542 0001:0004046C  8546 0001:0004049C  8562 0001:000404D4  8563 0001:000404EC
  8564 0001:00040500  8565 0001:00040520  8566 0001:00040543  8567 0001:0004054E
  8570 0001:00040558  8571 0001:00040570  8573 0001:00040582  8574 0001:0004058E
  8575 0001:000405A0  8576 0001:000405BC  8577 0001:000405C4  8579 0001:000405D5
  8583 0001:00040634  8586 0001:0004063C  8587 0001:00040652  8589 0001:00040689
  8590 0001:000406B2  8593 0001:000406C4  8595 0001:000406D5  8596 0001:00040702
  8597 0001:00040721  8602 0001:0004072C  8603 0001:00040736  8604 0001:00040752
  8605 0001:0004075B  8606 0001:00040779  8607 0001:0004078E  8612 0001:00040794
  8613 0001:000407B0  8615 0001:000407CD  8616 0001:000407D6  8618 0001:000407F5
  8619 0001:0004080A  8621 0001:0004081E  8624 0001:0004085E  8627 0001:00040864
  8628 0001:00040867  8629 0001:0004088D  8636 0001:000408A8  8637 0001:000408B3
  8638 0001:000408BF  8640 0001:000408C3  8641 0001:000408D1  8643 0001:000408D5
  8644 0001:000408D8  8645 0001:000408E6  8647 0001:000408EA  8648 0001:000408F7
  8652 0001:00040903  8654 0001:00040934  8655 0001:0004094E  8656 0001:00040978
  8658 0001:00040986  8659 0001:00040996  8660 0001:000409A6  8661 0001:000409B6
  8662 0001:000409C6  8663 0001:000409D6  8666 0001:000409F2  8671 0001:000409FB
  8672 0001:00040A37  8675 0001:00040A3C  8677 0001:00040A66  8681 0001:00040A88
  8683 0001:00040ABD  8684 0001:00040AC7  8685 0001:00040AF7  8687 0001:00040B34
  8688 0001:00040B55  8689 0001:00040B5A  8692 0001:00040C26  8693 0001:00040C30
  8694 0001:00040C38  8695 0001:00040C4D  8696 0001:00040C68  8697 0001:00040C83
  8698 0001:00040C9E  8699 0001:00040CB9  8700 0001:00040CD4  8701 0001:00040CEF
  8702 0001:00040D0A  8703 0001:00040D25  8704 0001:00040D40  8706 0001:00040D5B
  8709 0001:00040D93  8710 0001:00040DB1  8711 0001:00040DCF  8712 0001:00040DED
  8714 0001:00040E12  8717 0001:00040E50  8719 0001:00040E5D  8720 0001:00040E73
  8721 0001:00040E89  8722 0001:00040EA9  8723 0001:00040EC9  8725 0001:00040EDD
  8728 0001:00040F04  8729 0001:00040F15  8731 0001:00040F46  8732 0001:00040F4D
  8733 0001:00040F77  8736 0001:00040F95  8737 0001:00040F99  8738 0001:00040FA4
  8740 0001:00040FB5  8741 0001:00040FC4  8743 0001:00040FE8  8744 0001:00040FFB
  8746 0001:00041004  8747 0001:00041008  8749 0001:00041039  8750 0001:0004103D
  8755 0001:00041070  8756 0001:00041083  8758 0001:00041096  8760 0001:000410A8
  8761 0001:000410AC  8763 0001:000410E6  8764 0001:000410EE  8765 0001:000410F6
  8768 0001:0004113B  8770 0001:00041163  8772 0001:00041190  8773 0001:0004119C
  8775 0001:000411AA  8776 0001:000411BD  8777 0001:000411D7  8779 0001:000411E9
  8780 0001:000411ED  8782 0001:00041224  8783 0001:00041228  8784 0001:00041242
  8785 0001:00041255  8787 0001:00041276  8791 0001:0004127E  8792 0001:00041291
  8794 0001:000412A4  8796 0001:000412B1  8797 0001:000412B5  8799 0001:000412ED
  8800 0001:00041307  8801 0001:00041315  8803 0001:0004133B  8804 0001:00041347
  8809 0001:0004138C  8810 0001:0004139F  8812 0001:000413B2  8813 0001:000413B6
  8814 0001:000413C7  8816 0001:000413F5  8817 0001:00041403  8818 0001:00041419
  8820 0001:0004143A  8821 0001:00041441  8822 0001:00041453  8825 0001:00041480
  8827 0001:000414AB  8829 0001:000414CC  8831 0001:000414FC  8833 0001:00041516
  8834 0001:00041526  8835 0001:00041538  8836 0001:0004153F  8837 0001:0004154E
  8838 0001:00041556  8843 0001:00041563  8846 0001:0004156D  8847 0001:00041575
  8848 0001:0004157D  8849 0001:00041582  8850 0001:0004158D  8854 0001:0004159D
  8855 0001:000415A4  8856 0001:000415B2  8857 0001:000415CD  8858 0001:000415DA
  8862 0001:000415EF  8864 0001:000415FC  8865 0001:00041603  8870 0001:0004160F
  8871 0001:0004161A  8873 0001:00041627  8874 0001:0004162E  8879 0001:0004163A
  8880 0001:00041641  8884 0001:0004164D  8885 0001:00041652  8888 0001:0004166C
  8892 0001:00041680  8893 0001:00041687  8895 0001:0004168E  8899 0001:0004169A
  8900 0001:000416B7  8902 0001:000416BE  8906 0001:000416CA  8907 0001:000416D1
  8908 0001:000416DB  8910 0001:000416E8  8911 0001:000416EF  8918 0001:000416FB
  8919 0001:00041702  8920 0001:0004170D  8921 0001:0004171C  8922 0001:0004172A
  8923 0001:00041756  8924 0001:00041782  8925 0001:0004179A  8927 0001:000417AE
  8932 0001:000417C9  8934 0001:000417D9  8935 0001:000417E4  8939 0001:0004181E
  8943 0001:00041884  8945 0001:00041895  8947 0001:000418A6  8949 0001:000418A8
  8950 0001:000418D9  8951 0001:000418E6  8952 0001:000418F4  8953 0001:000418FE
  8954 0001:00041916  8955 0001:0004191D  8957 0001:0004192D  8958 0001:0004192F
  8959 0001:00041936  8960 0001:0004193B  8962 0001:00041956  8963 0001:0004195B
  8965 0001:00041976  8967 0001:0004197B  8968 0001:00041982  8971 0001:000419B7
  8973 0001:000419BC  8975 0001:000419C3  8976 0001:000419D6  8980 0001:00041A0B
  8982 0001:00041A10  8983 0001:00041A15  8984 0001:00041A1F  8986 0001:00041A21
  8987 0001:00041A2A  8988 0001:00041A36  8990 0001:00041A4B  8991 0001:00041A52
  8993 0001:00041A63  8994 0001:00041A90  9013 0001:00041AF0  9015 0001:00041AFD
  9016 0001:00041B0D  9018 0001:00041B22  9020 0001:00041B30  9021 0001:00041B38
  9022 0001:00041B40  9028 0001:00041B48  9030 0001:00041B57  9031 0001:00041B61
  9034 0001:00041B76  9035 0001:00041B80  9038 0001:00041B8A  9039 0001:00041B9A
  9040 0001:00041BA0  9041 0001:00041BA6  9042 0001:00041BAC  9045 0001:00041BB2
  9046 0001:00041BBC  9047 0001:00041BC0  9048 0001:00041BC5  9049 0001:00041BC8
  9050 0001:00041BDA  9052 0001:00041BE4  9053 0001:00041C04  9054 0001:00041C09
  9057 0001:00041C57  9058 0001:00041C67  9059 0001:00041C6F  9060 0001:00041C77
  9062 0001:00041C9C  9063 0001:00041CB7  9064 0001:00041CCC  9066 0001:00041CD0
  9067 0001:00041CDD  9071 0001:00041CEA  9072 0001:00041CF7  9077 0001:00041D15
  9078 0001:00041D24  9079 0001:00041D29  9083 0001:00041D39  9087 0001:00041D45
  9088 0001:00041D4C  9089 0001:00041D56  9090 0001:00041D61  9091 0001:00041D6E
  9092 0001:00041D7C  9094 0001:00041D9F  9099 0001:00041DBA  9102 0001:00041DC7
  9105 0001:00041E17  9107 0001:00041E28  9108 0001:00041E2B  9109 0001:00041E32
  9110 0001:00041E40  9111 0001:00041E49  9113 0001:00041E66  9115 0001:00041E8E
  9117 0001:00041E9D  9120 0001:00041EAC  9121 0001:00041EB6  9123 0001:00041EC4
  9127 0001:00041EF7  9128 0001:00041EFE  9133 0001:00041F00  9136 0001:00041F12
  9138 0001:00041F25  9139 0001:00041F29  9140 0001:00041F32  9143 0001:00041F3A
  9144 0001:00041F41  9146 0001:00041F47  9162 0001:00041F4C  9163 0001:00041F55
  9164 0001:00041F5B  9165 0001:00041F61  9166 0001:00041F67  9167 0001:00041F6D
  9168 0001:00041F73  9169 0001:00041F76  9175 0001:00041F7C  9176 0001:00041F89
  9177 0001:00041F8B  9179 0001:00041F94  9181 0001:00041F9B  9182 0001:00041F9D
  9184 0001:00041FA2  9185 0001:00041FA6  9187 0001:00041FAF  9182 0001:00041FB1
  9189 0001:00041FB4  9190 0001:00041FB6  9179 0001:00041FBA  9191 0001:00041FC2
  9193 0001:00041FC9  9194 0001:00041FD5  9193 0001:00041FF3  9195 0001:00041FF6
  9196 0001:00041FF8  9199 0001:00042000  9200 0001:00042011  9201 0001:0004201F
  9202 0001:00042029  9203 0001:0004202C  9204 0001:00042032  9205 0001:00042035
  9206 0001:00042048  9219 0001:00042058  9220 0001:00042065  9221 0001:0004206F
  9222 0001:00042082  9223 0001:00042097  9224 0001:000420A6  9225 0001:000420BB
  9226 0001:000420D2  9227 0001:000420E5  9230 0001:000420FC  9231 0001:00042106
  9232 0001:00042108  9235 0001:0004210D  9236 0001:00042116  9238 0001:0004211C
  9239 0001:0004212E  9240 0001:00042134  9233 0001:0004213B  9243 0001:00042141
  9245 0001:00042144  9246 0001:00042158  9247 0001:0004216D  9249 0001:00042174
  9250 0001:00042182  9251 0001:00042194  9252 0001:00042198  9253 0001:000421A7
  9254 0001:000421B5  9247 0001:000421BB  9259 0001:000421C0  9260 0001:000421D4
  9261 0001:000421DA  9257 0001:000421E4  9263 0001:000421F4  9264 0001:00042201
  9265 0001:00042218  9304 0001:00042220  9305 0001:00042227  9306 0001:00042229
  9305 0001:00042243  9307 0001:00042248  9308 0001:00042254  9309 0001:00042258
  9315 0001:0004225C  9316 0001:0004226C  9318 0001:00042274  9320 0001:00042279
  9322 0001:00042284  9323 0001:00042292  9324 0001:0004229F  9325 0001:000422AC
  9327 0001:000422C7  9328 0001:000422CE  9329 0001:000422D5  9331 0001:000422E0
  9333 0001:000422E7  9337 0001:000422EE  9339 0001:000422F0  9340 0001:000422F8
  9342 0001:00042307  9337 0001:00042308  9343 0001:0004230D  9357 0001:00042314
  9358 0001:00042321  9359 0001:0004232D  9360 0001:00042332  9361 0001:00042337
  9362 0001:0004233C  9363 0001:00042341  9364 0001:0004234F  9365 0001:00042357
  9367 0001:0004235B  9368 0001:00042360  9372 0001:00042367  9373 0001:0004236D
  9375 0001:00042372  9377 0001:00042378  9379 0001:0004238A  9380 0001:0004238F
  9382 0001:0004239E  9384 0001:000423A5  9385 0001:000423AA  9386 0001:000423B4
  9387 0001:000423BE  9392 0001:000423CA  9393 0001:000423D1  9396 0001:00042419
  9399 0001:0004243D  9405 0001:00042448  9407 0001:00042454  9408 0001:0004245B
  9411 0001:00042466  9412 0001:00042469  9414 0001:0004246F  9415 0001:00042471
  9416 0001:00042476  9417 0001:0004247B  9419 0001:00042480  9421 0001:00042482
  9423 0001:0004248A  9424 0001:0004248D  9425 0001:00042493  9426 0001:00042499
  9427 0001:0004249F  9428 0001:000424AD  9429 0001:000424B3  9431 0001:000424B6
  9419 0001:000424B7  9433 0001:000424BC  9434 0001:000424BF  9435 0001:000424C2
  9436 0001:000424C8  9437 0001:000424CE  9438 0001:000424D7  9451 0001:000424E0
  9452 0001:000424E5  9453 0001:000424EA  9454 0001:000424EB  9455 0001:000424F4
  9456 0001:000424FE  9458 0001:00042500  9459 0001:0004250E  9460 0001:00042519
  9461 0001:00042521  9462 0001:0004252F  9465 0001:0004253C  9466 0001:00042543
  9467 0001:0004254C  9468 0001:00042555  9469 0001:0004255B  9470 0001:00042561
  9473 0001:00042566  9474 0001:00042570  9475 0001:0004257E  9477 0001:00042598
  9478 0001:000425AB  9479 0001:000425AE  9480 0001:000425CB  9482 0001:000425DE
  9483 0001:000425EA  9484 0001:0004260D  9485 0001:0004262F  9480 0001:00042632
  9486 0001:00042635  9475 0001:00042638  9488 0001:0004264E  9491 0001:0004266E
  9493 0001:0004267E  9494 0001:00042684  9495 0001:00042693  9496 0001:00042698
  9497 0001:0004269D  9499 0001:000426AC  9500 0001:000426BB  9501 0001:000426C2
  9502 0001:000426CA  9504 0001:000426DC  9505 0001:000426EC  9507 0001:000426F4
  9508 0001:00042700  9509 0001:0004270C  9510 0001:00042716  9511 0001:00042724
  9514 0001:00042736  9515 0001:00042740  9516 0001:00042749  9517 0001:00042752
  9518 0001:0004275B  9520 0001:00042764  9521 0001:00042781  9522 0001:0004278E
  9523 0001:0004279D  9524 0001:000427B4  9525 0001:000427BE  9526 0001:000427CC
  9527 0001:000427D6  9530 0001:00042805  9533 0001:00042823  9535 0001:00042834
  9536 0001:00042837  9549 0001:0004283C  9550 0001:00042845  9551 0001:00042855
  9553 0001:0004285A  9555 0001:00042863  9556 0001:0004286D  9557 0001:00042880
  9558 0001:0004288F  9559 0001:00042894  9563 0001:0004289B  9564 0001:000428A5
  9565 0001:000428B2  9567 0001:000428D6  9568 0001:000428E5  9569 0001:000428EB
  9571 0001:000428F1  9572 0001:00042901  9573 0001:00042911  9574 0001:00042917
  9575 0001:0004291F  9576 0001:0004292A  9577 0001:00042934  9578 0001:00042947
  9579 0001:0004295A  9580 0001:00042970  9581 0001:0004298C  9582 0001:000429A0
  9583 0001:000429AE  9584 0001:000429B5  9585 0001:000429BC  9587 0001:000429CE
  9588 0001:000429DA  9589 0001:000429E8  9590 0001:000429ED  9592 0001:00042A09
  9594 0001:00042A0E  9595 0001:00042A19  9596 0001:00042A2C  9599 0001:00042A35
  9602 0001:00042A3C  9604 0001:00042A6A  9606 0001:00042A7D  9607 0001:00042A8F
  9608 0001:00042A9C  9609 0001:00042AAA  9610 0001:00042ABD  9611 0001:00042AC0
  9612 0001:00042AC3  9613 0001:00042AC6  9614 0001:00042AC9  9616 0001:00042AE9
  9619 0001:00042AFA  9620 0001:00042B03  9621 0001:00042B09  9622 0001:00042B0F
  9623 0001:00042B1E  9624 0001:00042B2C  9625 0001:00042B32  9627 0001:00042B45
  9628 0001:00042B4E  9630 0001:00042B5F  9632 0001:00042B8F  9634 0001:00042BA6
  9657 0001:00042BB0  9658 0001:00042BB9  9659 0001:00042BCF  9660 0001:00042BDC
  9661 0001:00042BEF  9662 0001:00042C02  9663 0001:00042C22  9664 0001:00042C35
  9665 0001:00042C54  9666 0001:00042C67  9668 0001:00042C6C  9669 0001:00042C80
  9670 0001:00042C82  9671 0001:00042C8B  9672 0001:00042C98  9673 0001:00042C9A
  9675 0001:00042CA8  9680 0001:00042CBA  9681 0001:00042CC4  9682 0001:00042CCF
  9683 0001:00042CDA  9684 0001:00042CE3  9685 0001:00042CEC  9686 0001:00042CF4
  9690 0001:00042D07  9691 0001:00042D14  9693 0001:00042D22  9694 0001:00042D47
  9695 0001:00042D56  9696 0001:00042D64  9697 0001:00042D6E  9698 0001:00042D78
  9699 0001:00042D7F  9700 0001:00042D86  9701 0001:00042D90  9703 0001:00042DA2
  9704 0001:00042DAC  9705 0001:00042DBC  9707 0001:00042DBE  9708 0001:00042DC7
  9709 0001:00042DD2  9711 0001:00042DD6  9713 0001:00042DE2  9714 0001:00042DEF
  9715 0001:00042DF5  9717 0001:00042E07  9718 0001:00042E0B  9719 0001:00042E0C
  9720 0001:00042E11  9721 0001:00042E12  9722 0001:00042E17  9723 0001:00042E18
  9715 0001:00042E1B  9724 0001:00042E1E  9726 0001:00042E2A  9727 0001:00042E39
  9728 0001:00042E49  9729 0001:00042E58  9730 0001:00042E68  9731 0001:00042E7B
  9732 0001:00042E86  9733 0001:00042E8E  9734 0001:00042E95  9735 0001:00042EA1
  9736 0001:00042EA9  9737 0001:00042EB9  9739 0001:00042ED6  9742 0001:00042EF5
  9744 0001:00042F08  9749 0001:00042F54  9750 0001:00042F5D  9752 0001:00042F61
  9753 0001:00042F70  9754 0001:00042F7E  9755 0001:00042F86  9756 0001:00042F94
  9758 0001:00042FAD  9761 0001:00042FCB  9763 0001:00042FDB  9767 0001:00042FE4
  9768 0001:00042FF8  9769 0001:00043003  9770 0001:0004300E  9771 0001:0004301F
  9822 0001:00043020  9823 0001:00043029  9825 0001:0004302C  9826 0001:00043098
  9828 0001:0004309C  9829 0001:000430AF  9831 0001:000430B7  9832 0001:000430D3
  9833 0001:000430EF  9834 0001:000430FE  9835 0001:0004310C  9837 0001:0004311E
  9839 0001:00043149  9840 0001:0004315F  9842 0001:00043165  9844 0001:00043190
  9846 0001:000431A6  9849 0001:000431C2  9851 0001:000431D3  9852 0001:000431D9
  9853 0001:000431E6  9855 0001:000431F0  9856 0001:00043200  9857 0001:00043211
  9858 0001:00043222  9861 0001:0004323E  9862 0001:0004324D  9864 0001:0004325C
  9867 0001:00043261  9868 0001:00043279  9870 0001:00043283  9871 0001:00043292
  9872 0001:000432A1  9874 0001:000432AF  9875 0001:000432B4  9876 0001:000432C3
  9877 0001:000432D1  9878 0001:000432DC  9877 0001:000432E9  9879 0001:000432EC
  9881 0001:000432F2  9882 0001:00043304  9881 0001:00043323  9884 0001:00043326
  9885 0001:0004333C  9887 0001:0004337C  9888 0001:0004339A  9889 0001:000433A5
  9890 0001:000433D4  9891 0001:000433ED  9892 0001:000433FE  9893 0001:00043427
  9894 0001:00043450  9895 0001:00043453  9884 0001:00043454  9897 0001:00043468
  9900 0001:00043478  9901 0001:0004348E  9902 0001:000434A4  9903 0001:000434B2
  9904 0001:000434CC  9906 0001:000434E2  9908 0001:000434EE  9909 0001:000434F8
  9910 0001:0004352D  9912 0001:0004357C  9904 0001:0004357D  9914 0001:00043584
  9915 0001:00043596  9916 0001:000435B5  9917 0001:000435C3  9918 0001:000435CC
  9919 0001:000435DA  9920 0001:000435E0  9922 0001:000435EE  9923 0001:000435F6
  9925 0001:000435FF  9926 0001:00043604  9927 0001:00043610  9928 0001:00043613
  9929 0001:00043628  9930 0001:0004363A  9932 0001:00043657  9933 0001:0004366D
  9936 0001:0004369A  9937 0001:000436A2  9939 0001:000436AA  9941 0001:000436B9
  9945 0001:000436CA  9948 0001:000436D6  9951 0001:000436E2  9953 0001:000436F9
  9955 0001:0004375D  9960 0001:000438D0  9961 0001:000438DF  9962 0001:000438EE
  9963 0001:000438FC  9964 0001:0004390E  9966 0001:00043938  9968 0001:0004394B
  9979 0001:00043974  9980 0001:00043997  9982 0001:000439B2  9983 0001:000439B9
  9985 0001:000439BE  9986 0001:000439CD  9987 0001:000439DB  9988 0001:000439E5
  9989 0001:000439FD  9990 0001:00043A10  9991 0001:00043A23  9992 0001:00043A34
  9993 0001:00043A3D  9994 0001:00043A47  9995 0001:00043A50  9996 0001:00043A5B
  9998 0001:00043A62  9999 0001:00043A70 10000 0001:00043A73 10001 0001:00043A84
 10002 0001:00043A87  9996 0001:00043A8A 10004 0001:00043A8D 10006 0001:00043AAC
 10008 0001:00043AE1 10015 0001:00043AF4 10016 0001:00043AFD 10018 0001:00043B06
 10021 0001:00043B16 10023 0001:00043B1C 10024 0001:00043B25 10019 0001:00043B2E
 10029 0001:00043B52 10031 0001:00043B57 10034 0001:00043B60 10035 0001:00043B87
 10037 0001:00043B90 10038 0001:00043B95 10041 0001:00043BEA 10043 0001:00043C0A
 10045 0001:00043C39 10048 0001:00043C54 10049 0001:00043C57 10051 0001:00043C60
 10052 0001:00043C65 10054 0001:00043C84 10056 0001:00043C89 10059 0001:00043C8C
 10060 0001:00043C8F 10062 0001:00043C98 10063 0001:00043C9D 10064 0001:00043CB8
 10066 0001:00043CBD 10070 0001:00043CC0 10072 0001:00043CC9 10073 0001:00043CCE
 10074 0001:00043CE2 10076 0001:00043CE7 10081 0001:00043CE8 10082 0001:00043CEB
 10083 0001:00043CF7 10098 0001:00043CFC 10099 0001:00043CFF 10100 0001:00043D0B
 10101 0001:00043D20 10102 0001:00043D30 10105 0001:00043D34 10106 0001:00043D37
 10107 0001:00043D3E 10108 0001:00043D4A 10111 0001:00043D4C 10112 0001:00043D4F
 10113 0001:00043D58 10114 0001:00043D6E 10117 0001:00043D70 10118 0001:00043D73
 10119 0001:00043D85 10120 0001:00043D8B 10121 0001:00043D99 10126 0001:00043D9C
 10127 0001:00043DBB 10129 0001:00043DD6 10130 0001:00043DDD 10133 0001:00043DE2
 10134 0001:00043DEC 10135 0001:00043E1F 10137 0001:00043E2C 10145 0001:00043EBB
 10151 0001:00043FF8 10152 0001:00044016 10153 0001:0004401E 10154 0001:0004402D
 10155 0001:0004403B 10157 0001:00044044 10158 0001:00044059 10157 0001:00044075
 10160 0001:00044078 10161 0001:00044089 10160 0001:00044096 10162 0001:00044099
 10163 0001:000440AB 10162 0001:000440D2 10165 0001:000440E2 10167 0001:00044114
 10170 0001:0004411C 10171 0001:00044154 10172 0001:00044159 10173 0001:0004416C
 10174 0001:00044190 10176 0001:0004419C 10177 0001:00044225 10179 0001:00044233
 10180 0001:0004424A 10181 0001:00044268 10182 0001:00044276 10183 0001:0004427B
 10184 0001:00044282 10185 0001:00044287 10186 0001:00044292 10187 0001:000442B4
 10189 0001:000442EB 10190 0001:000442F6 10191 0001:00044301 10192 0001:00044310
 10193 0001:00044314 10194 0001:00044332 10197 0001:0004433F 10207 0001:0004437A
 10209 0001:0004438E 10210 0001:000443A5 10216 0001:00044432 10217 0001:00044449
 10224 0001:0004453C 10225 0001:00044553 10234 0001:000445FB 10237 0001:00044661
 10238 0001:00044668 10239 0001:00044690 10241 0001:000446A4 10244 0001:000446C3
 10245 0001:000446C7 10247 0001:00044736 10255 0001:000449C8 10256 0001:00044A54
 10257 0001:00044A58 10258 0001:00044A6E 10259 0001:00044A84 10260 0001:00044A93
 10261 0001:00044AA1 10264 0001:00044AAF 10265 0001:00044AC1 10266 0001:00044ACE
 10268 0001:00044AE4 10269 0001:00044AEB 10270 0001:00044AF3 10272 0001:00044AF9
 10273 0001:00044B10 10274 0001:00044B2D 10275 0001:00044B35 10277 0001:00044B3D
 10278 0001:00044B4A 10281 0001:00044B90 10266 0001:00044B91 10284 0001:00044BA7
 10285 0001:00044BAB 10288 0001:00044BC9 10290 0001:00044BD9 10291 0001:00044C2F
 10296 0001:00044C70 10297 0001:00044C89 10298 0001:00044C94 10299 0001:00044CB0
 10303 0001:00044CB8 10304 0001:00044CC0 10309 0001:00044CC4 10310 0001:00044CE9
 10313 0001:00044CF5 10314 0001:00044CFC 10316 0001:00044D15 10319 0001:00044D2E
 10320 0001:00044D45 10323 0001:00044D8F 10339 0001:00044D9C 10340 0001:00044DB0
 10341 0001:00044DB5 10342 0001:00044E05 10344 0001:00044E1C 10345 0001:00044E36
 10347 0001:00044E48 10348 0001:00044E57 10349 0001:00044E65 10350 0001:00044E93
 10351 0001:00044EA1 10352 0001:00044EAF 10355 0001:00044ED1 10357 0001:00044EE3
 10359 0001:00044F15 10362 0001:00044F2C 10363 0001:00044F2F 10364 0001:00044F3D
 10366 0001:00044F51 10367 0001:00044F58 10371 0001:00044F6C 10372 0001:00044F7E
 10386 0001:00044F80 10387 0001:00044FA7 10388 0001:00044FAE 10389 0001:00044FC1
 10390 0001:00044FE4 10392 0001:00044FFF 10388 0001:0004502B 10393 0001:00045050
 10395 0001:00045064 10396 0001:000450A9 10397 0001:000450BF 10398 0001:000450D5
 10399 0001:000450EA 10400 0001:00045100 10401 0001:0004510F 10402 0001:0004511E
 10403 0001:00045125 10404 0001:0004512C 10405 0001:00045132 10406 0001:00045145
 10408 0001:000451A0 10409 0001:000451B4 10412 0001:000451E1 10414 0001:000451E5
 10415 0001:000451E7 10416 0001:000451EC 10417 0001:000451F7 10418 0001:00045201
 10419 0001:00045209 10420 0001:0004520D 10421 0001:0004521F 10422 0001:00045227
 10423 0001:0004522C 10424 0001:0004523C 10425 0001:00045245 10428 0001:00045250
 10429 0001:000452A1 10433 0001:0004531C 10435 0001:0004532D 10437 0001:0004533E
 10441 0001:00045340 10443 0001:00045351 10445 0001:00045362 10449 0001:00045364
 10451 0001:00045375 10453 0001:00045386 10457 0001:00045388 10459 0001:00045399
 10461 0001:000453AA 10465 0001:000453AC 10467 0001:000453BD 10469 0001:000453CE
 10473 0001:000453D0 10475 0001:000453E1 10477 0001:000453F2 10483 0001:000453F4
 10484 0001:00045418 10486 0001:00045427 10487 0001:00045439 10488 0001:00045447
 10489 0001:00045459 10488 0001:0004548D 10491 0001:0004549F 10493 0001:000454D1
 10496 0001:000454D8 10497 0001:000454F3 10499 0001:0004555C 10507 0001:00045564
 10508 0001:000455A5 10509 0001:000455B4 10510 0001:000455C2 10511 0001:000455CC
 10512 0001:000455D1 10515 0001:000455FA 10516 0001:00045608 10517 0001:00045617
 10519 0001:00045622 10520 0001:0004562F 10522 0001:00045688 10524 0001:000456CE
 10527 0001:000456E8 10528 0001:0004570D 10529 0001:0004570F 10531 0001:00045712
 10533 0001:0004571C 10536 0001:00045725 10537 0001:00045728 10538 0001:0004573B
 10539 0001:0004574E 10540 0001:00045761 10541 0001:0004576A 10545 0001:000457AC
 10546 0001:000457BF 10555 0001:0004582B 10556 0001:00045839 10559 0001:00045852
 10560 0001:00045859 10561 0001:0004585E 10562 0001:00045868 10564 0001:00045875
 10566 0001:00045877 10568 0001:000458A5 10578 0001:000458AC 10579 0001:000458D9
 10581 0001:000458E1 10582 0001:000458E6 10585 0001:00045907 10586 0001:0004592F
 10588 0001:00045937 10590 0001:00045974 10591 0001:000459A5 10600 0001:00045A20
 10601 0001:00045A42 10603 0001:00045A4C 10604 0001:00045A62 10607 0001:00045A77
 10608 0001:00045A87 10610 0001:00045A8D 10611 0001:00045A91 10615 0001:00045AA0
 10616 0001:00045AA4 10618 0001:00045AB1 10619 0001:00045AC0 10620 0001:00045ACE
 10621 0001:00045AE2 10620 0001:00045B08 10622 0001:00045B0B 10623 0001:00045B19
 10628 0001:00045B64 10629 0001:00045B69 10632 0001:00045B81 10634 0001:00045B91
 10635 0001:00045B96 10636 0001:00045BA9 10637 0001:00045BD4 10643 0001:00045BFC
 10644 0001:00045C1B 10645 0001:00045C31 10647 0001:00045C46 10648 0001:00045C55
 10649 0001:00045C63 10650 0001:00045C77 10649 0001:00045C9D 10651 0001:00045CA0
 10654 0001:00045CEC 10656 0001:00045CFC 10657 0001:00045D01 10658 0001:00045D15
 10659 0001:00045D40 10672 0001:00045D54 10673 0001:00045D6B 10674 0001:00045D74
 10675 0001:00045D81 10676 0001:00045D83 10677 0001:00045D91 10682 0001:00045D9C
 10683 0001:00045DBB 10685 0001:00045DC6 10686 0001:00045DF9 10687 0001:00045E0A
 10688 0001:00045E1B 10689 0001:00045E2C 10690 0001:00045E3D 10691 0001:00045E4E
 10693 0001:00045E5D 10695 0001:00045E9F 10697 0001:00045EAB 10698 0001:00045ED4
 10701 0001:00045F18 10702 0001:00045F34 10703 0001:00045F53 10704 0001:00045F75
 10705 0001:00045F97 10706 0001:00045FD6 10708 0001:00046030 10709 0001:0004604F
 10710 0001:00046051 10711 0001:00046070 10713 0001:00046078 10714 0001:00046087
 10715 0001:00046095 10716 0001:000460A3 10717 0001:000460B1 10718 0001:000460BF
 10719 0001:000460C7 10721 0001:00046108 10724 0001:0004613E 10725 0001:00046157
 10726 0001:0004615F 10727 0001:00046167 10730 0001:0004616D 10731 0001:0004617C
 10732 0001:0004618A 10733 0001:00046192 10739 0001:000461FE 10741 0001:0004620E
 10742 0001:00046213 10746 0001:00046222 10747 0001:0004625E 10749 0001:00046268
 10751 0001:00046280 10753 0001:00046290 10754 0001:000462C9 10756 0001:000462D0
 10757 0001:000462F1 10758 0001:000462F3 10760 0001:000462FA 10762 0001:00046304
 10764 0001:00046311 10766 0001:00046313 10767 0001:0004631A 10768 0001:0004632D
 10769 0001:00046350 10770 0001:0004635D 10771 0001:0004636D 10772 0001:0004637D
 10774 0001:00046398 10776 0001:000463AA 10777 0001:000463B0 10779 0001:000463B9
 10780 0001:000463C0 10781 0001:000463C9 10782 0001:000463D3 10784 0001:000463E0
 10786 0001:00046416 10791 0001:0004641C 10792 0001:0004643E 10794 0001:00046448
 10796 0001:00046452 10799 0001:00046456 10800 0001:00046479 10797 0001:0004647A
 10803 0001:00046486 10804 0001:000464A1 10805 0001:000464D5 10807 0001:000464DC
 10808 0001:00046500 10809 0001:00046504 10810 0001:0004650B 10811 0001:00046515
 10812 0001:0004651F 10813 0001:00046524 10814 0001:00046529 10815 0001:00046537
 10816 0001:00046541 10817 0001:0004654F 10818 0001:00046554 10819 0001:00046562
 10821 0001:00046564 10823 0001:0004656F 10824 0001:00046576 10825 0001:00046581
 10828 0001:0004658A 10830 0001:00046595 10831 0001:000465AB 10832 0001:000465B2
 10833 0001:000465BD 10836 0001:000465C6 10838 0001:000465D5 10840 0001:000465DF
 10843 0001:000465F0 10847 0001:0004662C 10853 0001:00046662 10856 0001:00046671
 10857 0001:00046698 10860 0001:000466B3 10862 0001:000466D0 10865 0001:000466F5
 10868 0001:00046723 10870 0001:0004676A 10875 0001:00046770 10876 0001:00046771
 10879 0001:00046788 10881 0001:00046797 10882 0001:000467A7 10883 0001:000467AB
 10884 0001:000467B4 10886 0001:000467BD 10887 0001:000467C2 10896 0001:000467C4
 10898 0001:000467DD 10900 0001:000467ED 10902 0001:0004680C 10905 0001:0004687C
 10907 0001:000468B6 10911 0001:000468C0 10912 0001:000468CA 10913 0001:000468D1
 10917 0001:000468D4 10918 0001:000468DD 10924 0001:000468EE 10931 0001:000468F0
 10932 0001:000468F3 10933 0001:000468FD 10934 0001:0004690B 10935 0001:00046910
 10936 0001:00046915 10937 0001:0004691A 10938 0001:0004691F 10940 0001:00046936
 10942 0001:00046948 10950 0001:0004694C 10951 0001:00046952 10953 0001:00046956
 10954 0001:00046977 10955 0001:0004698A 10957 0001:0004699C 10958 0001:000469BA
 10959 0001:000469C2 10960 0001:000469E4 10961 0001:000469FC 10962 0001:00046A36
 10967 0001:00046A3C 10968 0001:00046A43 10969 0001:00046A52 10971 0001:00046A58
 10972 0001:00046A61 10974 0001:00046A65 10976 0001:00046A79 10979 0001:00046A88
 10987 0001:00046A8C 10988 0001:00046AB1 10989 0001:00046AB8 10990 0001:00046AC3
 10992 0001:00046ACF 10993 0001:00046ADD 10994 0001:00046AE3 10999 0001:00046B17
 11001 0001:00046B3D 11002 0001:00046B76 11005 0001:00046B9C 11007 0001:00046B9F
 11017 0001:00046BA4 11018 0001:00046BC3 11020 0001:00046BD6 11021 0001:00046BE5
 11023 0001:00046BEF 11024 0001:00046BF7 11025 0001:00046BF9 11026 0001:00046BFD
 11028 0001:00046C02 11030 0001:00046C12 11031 0001:00046C14 11033 0001:00046C18
 11034 0001:00046C1C 11036 0001:00046C1E 11037 0001:00046C25 11038 0001:00046C3A
 11026 0001:00046C3B 11042 0001:00046C3E 11043 0001:00046C5D 11046 0001:00046C98
 11060 0001:00046CCC 11061 0001:00046CCF 11063 0001:00046CD8 11064 0001:00046CEB
 11066 0001:00046CF2 11068 0001:00046D04 11069 0001:00046D2A 11071 0001:00046D32
 11074 0001:00046D46 11075 0001:00046D4D 11076 0001:00046D5E 11078 0001:00046D5F
 11079 0001:00046D63 11080 0001:00046D64 11081 0001:00046D66 11083 0001:00046D6A
 11085 0001:00046D78 11086 0001:00046D7F 11088 0001:00046D84 11081 0001:00046D85
 11090 0001:00046D89 11093 0001:00046D8D 11095 0001:00046D93 11096 0001:00046D99
 11098 0001:00046D9D 11100 0001:00046DAB 11101 0001:00046DB2 11103 0001:00046DB5
 11096 0001:00046DB6 11108 0001:00046DBA 11109 0001:00046DC2 11112 0001:00046DD6
 11113 0001:00046DDE 11114 0001:00046DE6 11115 0001:00046DEB 11116 0001:00046DF0
 11117 0001:00046DFF 11118 0001:00046E0E 11119 0001:00046E18 11120 0001:00046E22
 11121 0001:00046E2C 11122 0001:00046E36 11123 0001:00046E40 11124 0001:00046E4E
 11125 0001:00046E52 11126 0001:00046E54 11128 0001:00046E5D 11129 0001:00046E65
 11130 0001:00046E6C 11131 0001:00046E70 11132 0001:00046EBA 11133 0001:00046ECA
 11134 0001:00046EF8 11135 0001:00046F03 11136 0001:00046F1B 11138 0001:00046F1F
 11139 0001:00046F26 11141 0001:00046F33 11142 0001:00046F40 11144 0001:00046F50
 11145 0001:00046F74 11147 0001:00046FBB 11149 0001:00046FC8 11150 0001:00046FD3
 11151 0001:00046FDE 11153 0001:00046FED 11155 0001:00046FFA 11156 0001:00047005
 11157 0001:0004702A 11161 0001:00047035 11163 0001:0004703F 11164 0001:00047047
 11165 0001:00047065 11166 0001:0004707E 11167 0001:0004709F 11169 0001:000470C0
 11172 0001:000470CB 11175 0001:000470D1 11176 0001:000470DD 11126 0001:000470E0
 11180 0001:000470E9 11183 0001:000470FF 11186 0001:00047137 11187 0001:0004713B
 11189 0001:00047151 11190 0001:00047174 11192 0001:0004718A 11193 0001:000471C6
 11194 0001:000471ED 11196 0001:0004720E 11187 0001:0004720F 11198 0001:00047216
 11199 0001:00047237 11200 0001:00047249 11199 0001:00047288 11202 0001:0004728B
 11204 0001:000472BC 11206 0001:000472D5 11208 0001:000472ED 11209 0001:000472F5
 11212 0001:0004733F 11241 0001:000473F0 11242 0001:00047419 11243 0001:00047420
 11245 0001:0004742C 11246 0001:00047440 11247 0001:00047459 11249 0001:00047472
 11245 0001:0004747F 11251 0001:000474A9 11256 0001:000474BC 11257 0001:000474D4
 11258 0001:000474DB 11260 0001:000474EB 11261 0001:000474FC 11262 0001:00047521
 11258 0001:00047522 11263 0001:00047542 11268 0001:00047560 11269 0001:00047568
 11270 0001:0004756F 11271 0001:0004757B 11272 0001:0004758D 11273 0001:000475AF
 11276 0001:000475BC 11277 0001:000475BF 11278 0001:000475D9 11284 0001:000475DC
 11285 0001:000475E9 11286 0001:000475EE 11287 0001:00047605 11289 0001:00047619
 11290 0001:00047620 11296 0001:00047628 11297 0001:0004764B 11298 0001:00047650
 11299 0001:00047669 11301 0001:0004768E 11302 0001:000476B5 11305 0001:000476BC
 11306 0001:000476C2 11307 0001:000476CF 11310 0001:000476D4 11311 0001:000476DA
 11312 0001:000476E7 11315 0001:000476EC 11316 0001:000476EF 11317 0001:000476FD
 11337 0001:00047700 11338 0001:0004770C 11339 0001:00047715 11340 0001:00047728
 11341 0001:0004773A 11349 0001:00047740 11350 0001:00047752 11351 0001:00047759
 11353 0001:0004777C 11355 0001:00047784 11356 0001:0004779F 11357 0001:000477A6
 11358 0001:000477B0 11360 0001:000477B7 11361 0001:000477BC 11362 0001:000477F7
 11363 0001:00047803 11365 0001:00047809 11366 0001:00047815 11368 0001:00047821
 11369 0001:0004782E 11372 0001:00047858 11374 0001:0004786C 11375 0001:0004786F
 11376 0001:00047879 11377 0001:00047885 11378 0001:00047892 11380 0001:00047894
 11381 0001:00047897 11382 0001:0004789E 11385 0001:000478A0 11386 0001:000478A3
 11387 0001:000478B3 11390 0001:000478B8 11391 0001:000478BB 11392 0001:000478CE
 11395 0001:000478D0 11396 0001:000478D6 11397 0001:000478DF 11399 0001:000478F8
 11400 0001:000478FF 11405 0001:00047904 11406 0001:0004791E 11407 0001:00047933
 11409 0001:00047946 11410 0001:00047950 11411 0001:0004795E 11412 0001:000479A1
 11417 0001:000479C4 11418 0001:000479DC 11419 0001:000479F1 11421 0001:00047A04
 11422 0001:00047A33 11425 0001:00047A38 11426 0001:00047A44 11428 0001:00047A53
 11429 0001:00047A68 11431 0001:00047A7A 11433 0001:00047A9C 11434 0001:00047AA8
 11435 0001:00047AB4 11447 0001:00047ADC 11448 0001:00047B2F 11449 0001:00047B39
 11451 0001:00047B55 11452 0001:00047B57 11454 0001:00047B6C 11456 0001:00047B71
 11457 0001:00047B86 11458 0001:00047B93 11459 0001:00047B99 11460 0001:00047BA8
 11463 0001:00047BD2 11467 0001:00047C65 11468 0001:00047C75 11473 0001:00047D1B
 11477 0001:00047DA1 11480 0001:00047DA8 11481 0001:00047DBE 11483 0001:00047DD3
 11487 0001:00047DEF 11488 0001:00047DFB 11490 0001:00047E1C 11491 0001:00047E23
 11492 0001:00047E4C 11497 0001:00047E7C 11498 0001:00047E98 11499 0001:00047E9F
 11500 0001:00047EA8 11501 0001:00047EF7 11506 0001:00047F0C 11507 0001:00047F28
 11508 0001:00047F2F 11509 0001:00047F38 11510 0001:00047F87 11518 0001:00047F9C
 11519 0001:00047FBD 11520 0001:00047FBF 11521 0001:00047FCB 11523 0001:00047FCF
 11524 0001:00047FDC 11526 0001:00047FE0 11527 0001:00048008 11530 0001:00048047
 11535 0001:00048080 11536 0001:0004809C 11537 0001:000480A3 11538 0001:000480B2
 11539 0001:000480FB 11544 0001:00048120 11545 0001:0004813C 11546 0001:00048143
 11547 0001:00048152 11548 0001:0004819B 11551 0001:000481C0 11552 0001:000481C3
 11553 0001:000481D6 11558 0001:000481D8 11559 0001:000481F2 11560 0001:0004820B
 11561 0001:00048228 11562 0001:0004826B 11567 0001:0004828C 11568 0001:000482A7
 11570 0001:000482C9 11572 0001:000482D2 11574 0001:000482F5 11576 0001:00048318
 11577 0001:00048328 11578 0001:0004832E 11579 0001:00048349 11581 0001:0004837C
 11586 0001:00048430 11587 0001:00048439 11588 0001:00048453 11589 0001:00048460
 11594 0001:0004846C 11595 0001:00048475 11596 0001:0004847F 11597 0001:0004848D
 11600 0001:000484DB 11602 0001:000484EE 11661 0001:0004850C 11662 0001:00048535
 11664 0001:0004853B 11665 0001:00048547 11668 0001:0004854C 11669 0001:00048553
 11671 0001:00048560 11672 0001:0004856F 11674 0001:00048573 11675 0001:00048587
 11676 0001:00048596 11677 0001:000485BC 11679 0001:000485D2 11681 0001:000485D6
 11682 0001:0004860F 11684 0001:00048648 11685 0001:0004866A 11686 0001:00048673
 11688 0001:0004868B 11690 0001:000486A1 11691 0001:000486A7 11693 0001:000486AB
 11694 0001:000486E6 11697 0001:00048721 11698 0001:00048727 11699 0001:0004872B
 11701 0001:00048766 11702 0001:0004876B 11704 0001:00048789 11705 0001:00048794
 11706 0001:000487A2 11708 0001:000487B9 11709 0001:000487BE 11712 0001:000487C9
 11713 0001:0004880B 11714 0001:00048846 11715 0001:00048847 11710 0001:00048849
 11717 0001:00048856 11719 0001:00048892 11722 0001:000488C4 11727 0001:00048910
 11728 0001:00048927 11729 0001:00048933 11730 0001:0004897F 11732 0001:00048990
 11733 0001:000489A1 11734 0001:000489A9 11735 0001:000489B1 11736 0001:000489B9
 11737 0001:000489C1 11738 0001:000489C9 11740 0001:000489D1 11741 0001:000489DE
 11742 0001:000489E8 11743 0001:000489F6 11744 0001:00048A06 11745 0001:00048A17
 11747 0001:00048A21 11748 0001:00048A26 11750 0001:00048A33 11751 0001:00048A3E
 11752 0001:00048A41 11753 0001:00048A4F 11755 0001:00048A5A 11757 0001:00048A5E
 11758 0001:00048A67 11755 0001:00048A69 11762 0001:00048A7A 11767 0001:00048A97
 11769 0001:00048AA8 11770 0001:00048AB0 11771 0001:00048AB8 11772 0001:00048AC0
 11773 0001:00048AC8 11774 0001:00048AD0 11775 0001:00048AD8 11789 0001:00048B14
 11790 0001:00048B3A 11791 0001:00048B41 11792 0001:00048B46 11793 0001:00048B5C
 11795 0001:00048B66 11796 0001:00048B71 11797 0001:00048B7F 11799 0001:00048B97
 11801 0001:00048BB5 11805 0001:00048BF9 11806 0001:00048BFE 11807 0001:00048C22
 11811 0001:00048C43 11814 0001:00048C78 11832 0001:00048CD4 11833 0001:00048CD6
 11835 0001:00048CE6 11836 0001:00048CF3 11839 0001:00048CF6 11840 0001:00048D03
 11843 0001:00048D05 11849 0001:00048D08 11850 0001:00048D31 11851 0001:00048D38
 11852 0001:00048D58 11854 0001:00048D76 11855 0001:00048D82 11856 0001:00048D8C
 11857 0001:00048DAE 11859 0001:00048DBA 11860 0001:00048DC1 11862 0001:00048DE7
 11869 0001:00048DF0 11870 0001:00048E1D 11871 0001:00048E22 11872 0001:00048E42
 11874 0001:00048E60 11875 0001:00048E8A 11876 0001:00048EA2 11878 0001:00048ED0
 11887 0001:00048ED8 11888 0001:00048EFA 11889 0001:00048F07 11890 0001:00048F15
 11891 0001:00048F25 11893 0001:00048F36 11895 0001:00048F44 11896 0001:00048F5C
 11897 0001:00048F92 11898 0001:00048FA6 11899 0001:00048FBC 11902 0001:00048FC3
 11903 0001:00048FDE 11900 0001:00048FDF 11905 0001:00048FEB 11906 0001:00049007
 11910 0001:00049033 11911 0001:00049040 11912 0001:0004904D 11914 0001:0004904F
 11915 0001:00049062 11917 0001:00049068 11918 0001:00049073 11920 0001:00049074
 11921 0001:0004907A 11922 0001:00049085 11923 0001:0004909B 11924 0001:000490B1
 11929 0001:000490E0 11930 0001:000490F2 11931 0001:000490FC 11932 0001:0004910B
 11933 0001:0004911E 11935 0001:0004912C 11936 0001:00049155 11937 0001:00049186
 11938 0001:000491B2 11940 0001:000491B8 11941 0001:000491D2 11945 0001:000491E8
 11946 0001:00049200 11947 0001:00049236 11949 0001:0004924A 11951 0001:00049276
 11955 0001:0004928E 11956 0001:000492BD 11960 0001:000492FA 11963 0001:00049353
 11965 0001:00049396 11970 0001:00049630 11971 0001:00049637 11972 0001:00049641
 11973 0001:0004964F 11975 0001:0004966E 11977 0001:00049681 11993 0001:00049688
 11994 0001:0004968E 11995 0001:00049695 11996 0001:0004969E 11998 0001:000496AD
 11999 0001:000496B9 12004 0001:000496DC 12005 0001:000496E5 12006 0001:000496EE
 12007 0001:000496FD 12006 0001:00049709 12008 0001:0004970C 12010 0001:0004971C
 12011 0001:00049740 12012 0001:00049747 12013 0001:00049760 12014 0001:0004976E
 12015 0001:00049781 12016 0001:0004978C 12017 0001:0004979A 12019 0001:000497B9
 12021 0001:000497CA 12022 0001:000497E0 12023 0001:000497F0 12024 0001:000497F5
 12025 0001:00049806 12026 0001:00049811 12027 0001:00049829 12028 0001:00049834
 12029 0001:00049867 12019 0001:00049868 12032 0001:0004987C 12035 0001:00049899
 12037 0001:000498CC 12040 0001:000498E0 12041 0001:000498E3 12042 0001:000498F0
 12045 0001:000498F4 12046 0001:000498F7 12048 0001:0004990C 12049 0001:00049911
 12051 0001:00049926 12052 0001:0004992B 12054 0001:00049940 12105 0001:00049A1C
 12106 0001:00049A1D 12107 0001:00049A1F 12108 0001:00049A24 12110 0001:00049A28
 12109 0001:00049A29 12111 0001:00049A2E 12113 0001:00049A32 12112 0001:00049A33
 12114 0001:00049A3E 12116 0001:00049A43 12117 0001:00049A46 12119 0001:00049A47
 12120 0001:00049A4B 12122 0001:00049A50 12124 0001:00049A57 12125 0001:00049A79
 12126 0001:00049A84 12127 0001:00049A95 12129 0001:00049AB0 12130 0001:00049ADA
 12133 0001:00049AE1 12135 0001:00049AEF 12136 0001:00049AF7 12137 0001:00049AFF
 12140 0001:00049B2E 12141 0001:00049B3F 12143 0001:00049B4D 12144 0001:00049B74
 12145 0001:00049B7D 12147 0001:00049B8E 12149 0001:00049BB5 12155 0001:00049BC8
 12158 0001:00049BF0 12159 0001:00049C00 12160 0001:00049C09 12161 0001:00049C17
 12162 0001:00049C2C 12164 0001:00049C30 12165 0001:00049C3A 12166 0001:00049C4E
 12169 0001:00049C6D 12173 0001:00049CA6 12175 0001:00049CD4 12176 0001:00049CEB
 12177 0001:00049CF0 12178 0001:00049D05 12179 0001:00049D44 12181 0001:00049D48
 12182 0001:00049D6A 12183 0001:00049D71 12184 0001:00049D7B 12186 0001:00049D85
 12187 0001:00049D8A 12188 0001:00049D98 12189 0001:00049DB1 12190 0001:00049DBC
 12191 0001:00049DCA 12192 0001:00049DEB 12195 0001:00049E3B 12198 0001:00049E58
 12200 0001:00049E8B 12216 0001:00049EB0 12217 0001:00049EBF 12219 0001:00049ED2
 12220 0001:00049EE4 12221 0001:00049EE9 12222 0001:00049EFA 12221 0001:00049F13
 12223 0001:00049F16 12224 0001:00049F20 12217 0001:00049F27 12225 0001:00049F2C
 12226 0001:00049F3E 12227 0001:00049F4F 12228 0001:00049F61 12229 0001:00049F67
 12235 0001:00049F70 12237 0001:00049F81 12239 0001:00049F92 12243 0001:00049F94
 12245 0001:00049FA5 12247 0001:00049FB6 12251 0001:00049FB8 12253 0001:00049FC9
 12255 0001:00049FDA 12257 0001:00049FDC 12258 0001:00049FF2 12259 0001:00049FF9
 12261 0001:00049FFE 12262 0001:0004A00C 12265 0001:0004A016 12266 0001:0004A01B
 12270 0001:0004A029 12274 0001:0004A02E 12279 0001:0004A037 12280 0001:0004A052
 12281 0001:0004A060 12282 0001:0004A07A 12283 0001:0004A091 12289 0001:0004A0AA
 12290 0001:0004A0B6 12293 0001:0004A0C2 12294 0001:0004A0C9 12295 0001:0004A0E0
 12297 0001:0004A0EA 12299 0001:0004A0F7 12301 0001:0004A0FC 12302 0001:0004A10A
 12303 0001:0004A131 12310 0001:0004A144 12311 0001:0004A147 12315 0001:0004A1D8
 12317 0001:0004A1DC 12318 0001:0004A1E2 12319 0001:0004A1E5 12321 0001:0004A1FD
 12323 0001:0004A21D 12324 0001:0004A220 12326 0001:0004A222 12319 0001:0004A225
 12327 0001:0004A22A 12331 0001:0004A230 12333 0001:0004A241 12335 0001:0004A252
 12339 0001:0004A254 12341 0001:0004A265 12343 0001:0004A276 12347 0001:0004A278
 12348 0001:0004A282 12354 0001:0004A284 12355 0001:0004A2AE 12356 0001:0004A2CD
 12359 0001:0004A2D3 12360 0001:0004A2E4 12361 0001:0004A2F2 12362 0001:0004A309
 12363 0001:0004A30F 12365 0001:0004A33D 12366 0001:0004A343 12368 0001:0004A371
 12369 0001:0004A377 12371 0001:0004A3A5 12372 0001:0004A3AB 12374 0001:0004A3D9
 12375 0001:0004A3DF 12377 0001:0004A40D 12379 0001:0004A43B 12380 0001:0004A441
 12381 0001:0004A458 12383 0001:0004A486 12384 0001:0004A48C 12386 0001:0004A4BF
 12387 0001:0004A4C5 12389 0001:0004A4F8 12391 0001:0004A52B 12392 0001:0004A531
 12394 0001:0004A564 12395 0001:0004A56A 12397 0001:0004A5A3 12399 0001:0004A5D0
 12401 0001:0004A5FC 12403 0001:0004A628 12406 0001:0004A651 12407 0001:0004A66E
 12409 0001:0004A6A8 12411 0001:0004A6E2 12413 0001:0004A71C 12415 0001:0004A756
 12418 0001:0004A795 12419 0001:0004A79B 12420 0001:0004A7B8 12424 0001:0004A80A
 12425 0001:0004A810 12428 0001:0004A862 12429 0001:0004A868 12433 0001:0004A8BF
 12434 0001:0004A8C5 12438 0001:0004A91C 12439 0001:0004A922 12440 0001:0004A93F
 12442 0001:0004A979 12443 0001:0004A97F 12444 0001:0004A985 12446 0001:0004A9BF
 12447 0001:0004A9C5 12449 0001:0004A9FF 12450 0001:0004AA05 12452 0001:0004AA3F
 12453 0001:0004AA45 12455 0001:0004AA7F 12456 0001:0004AA85 12458 0001:0004AABF
 12459 0001:0004AAC5 12461 0001:0004AAFF 12462 0001:0004AB05 12464 0001:0004AB3F
 12466 0001:0004AB79 12468 0001:0004ABB3 12470 0001:0004ABF2 12471 0001:0004ABF8
 12472 0001:0004AC15 12474 0001:0004AC4F 12475 0001:0004AC55 12477 0001:0004AC8F
 12478 0001:0004AC95 12480 0001:0004ACCF 12481 0001:0004ACD5 12483 0001:0004AD0F
 12485 0001:0004AD49 12486 0001:0004AD4F 12487 0001:0004AD6C 12489 0001:0004AD96
 12490 0001:0004AD9C 12492 0001:0004ADC6 12493 0001:0004ADCC 12495 0001:0004ADF6
 12496 0001:0004ADFC 12498 0001:0004AE26 12499 0001:0004AE2C 12501 0001:0004AE56
 12502 0001:0004AE5C 12504 0001:0004AE86 12505 0001:0004AE8C 12507 0001:0004AEAF
 12509 0001:0004AEC2 12512 0001:0004AEF7 12521 0001:0004AF38 12522 0001:0004AF3F
 12523 0001:0004AF4C 12525 0001:0004AF6A 12526 0001:0004AF76 12529 0001:0004AF90
 12530 0001:0004AF97 12531 0001:0004AFA4 12533 0001:0004AFC2 12534 0001:0004AFCE
 12537 0001:0004AFE8 12538 0001:0004AFEF 12539 0001:0004AFFC 12541 0001:0004B01A
 12542 0001:0004B026 12545 0001:0004B040 12546 0001:0004B047 12547 0001:0004B054
 12549 0001:0004B072 12550 0001:0004B07E 12553 0001:0004B098 12554 0001:0004B09F
 12555 0001:0004B0AC 12557 0001:0004B0CA 12558 0001:0004B0D6 12561 0001:0004B0F0
 12562 0001:0004B0F7 12563 0001:0004B104 12565 0001:0004B122 12566 0001:0004B12E
 12569 0001:0004B148 12570 0001:0004B14F 12571 0001:0004B15C 12573 0001:0004B17A
 12574 0001:0004B186 12577 0001:0004B1A0 12578 0001:0004B1A7 12579 0001:0004B1B4
 12581 0001:0004B1D2 12582 0001:0004B1DE 12590 0001:0004B1F8 12591 0001:0004B225
 12592 0001:0004B231 12593 0001:0004B23A 12594 0001:0004B241 12597 0001:0004B26A
 12599 0001:0004B271 12602 0001:0004B2EC 12603 0001:0004B2F0 12605 0001:0004B2F5
 12606 0001:0004B31C 12603 0001:0004B31D 12608 0001:0004B320 12609 0001:0004B32C
 12610 0001:0004B32F 12612 0001:0004B334 12613 0001:0004B33E 12615 0001:0004B343
 12616 0001:0004B347 12617 0001:0004B35C 12610 0001:0004B35D 12619 0001:0004B360
 12597 0001:0004B36C 12621 0001:0004B39F 12626 0001:0004B3D8 12627 0001:0004B3EF
 12628 0001:0004B40D 12629 0001:0004B41B 12628 0001:0004B427 12630 0001:0004B44A
 12636 0001:0004B468 12637 0001:0004B482 12638 0001:0004B48A 12639 0001:0004B4A8
 12640 0001:0004B4DF 12642 0001:0004B510 12646 0001:0004B536 12647 0001:0004B540
 12649 0001:0004B562 12650 0001:0004B56C 12651 0001:0004B577 12652 0001:0004B581
 12653 0001:0004B58B 12655 0001:0004B595 12656 0001:0004B59F 12658 0001:0004B5A9
 12660 0001:0004B5BB 12662 0001:0004B5D6 12680 0001:0004B720 12682 0001:0004B751
 12683 0001:0004B775 12682 0001:0004B784 12685 0001:0004B787 12688 0001:0004B7BA
 12689 0001:0004B7DD 12690 0001:0004B7F0 12691 0001:0004B813 12692 0001:0004B836
 12693 0001:0004B859 12694 0001:0004B87C 12696 0001:0004B89F 12697 0001:0004B8AC
 12698 0001:0004B8C0 12700 0001:0004B8EB 12701 0001:0004B91D 12704 0001:0004B93C
 12706 0001:0004B983 12707 0001:0004B994 12709 0001:0004B9C4 12710 0001:0004B9CF
 12711 0001:0004B9E2 12712 0001:0004B9F3 12713 0001:0004BA0B 12714 0001:0004BA21
 12715 0001:0004BA3C 12716 0001:0004BA55 12717 0001:0004BA70 12718 0001:0004BA89
 12719 0001:0004BA9C 12720 0001:0004BAAD 12697 0001:0004BAAE 12722 0001:0004BAB5
 12723 0001:0004BABF 12724 0001:0004BACA 12725 0001:0004BAF5 12724 0001:0004BB08
 12727 0001:0004BB0B 12728 0001:0004BB15 12739 0001:0004BCE7 12740 0001:0004BCF1
 12742 0001:0004BCFE 12743 0001:0004BD2B 12744 0001:0004BD36 12746 0001:0004BD59
 12748 0001:0004BD8E 12749 0001:0004BD98 12750 0001:0004BDB2 12751 0001:0004BDBC
 12752 0001:0004BDC4 12753 0001:0004BDCB 12754 0001:0004BDD2 12755 0001:0004BDD9
 12756 0001:0004BDE3 12757 0001:0004BDF7 12759 0001:0004BE22 12760 0001:0004BE2C
 12764 0001:0004BE79 12765 0001:0004BE83 12767 0001:0004BEA2 12768 0001:0004BEE1
 12771 0001:0004BF1C 12772 0001:0004BF25 12773 0001:0004BF64 12774 0001:0004BF6E
 12775 0001:0004BF9D 12776 0001:0004BFA7 12777 0001:0004BFE4 12778 0001:0004C023
 12780 0001:0004C02D 12781 0001:0004C042 12782 0001:0004C057 12783 0001:0004C06C
 12784 0001:0004C09E 12787 0001:0004C0BD 12789 0001:0004C104 12790 0001:0004C10E
 12791 0001:0004C11F 12793 0001:0004C14F 12794 0001:0004C15A 12795 0001:0004C164
 12800 0001:0004C28D 12801 0001:0004C294 12802 0001:0004C29E 12756 0001:0004C29F
 12803 0001:0004C2A6 12804 0001:0004C2B8 12805 0001:0004C2D9 12808 0001:0004C2E3
 12810 0001:0004C309 12813 0001:0004C31B 12816 0001:0004C353 12817 0001:0004C376
 12818 0001:0004C389 12819 0001:0004C3AC 12820 0001:0004C3D2 12821 0001:0004C3F8
 12822 0001:0004C41E 12823 0001:0004C444 12825 0001:0004C46A 12827 0001:0004C47E
 12828 0001:0004C4AB 12829 0001:0004C4D6 12830 0001:0004C4F5 12831 0001:0004C512
 12832 0001:0004C531 12833 0001:0004C54E 12834 0001:0004C582 12835 0001:0004C5B4
 12836 0001:0004C5E4 12837 0001:0004C612 12838 0001:0004C645 12839 0001:0004C676
 12825 0001:0004C677 12841 0001:0004C67E 12843 0001:0004C689 12842 0001:0004C6DC
 12845 0001:0004C6DF 12859 0001:0004C8E0 12861 0001:0004C922 12862 0001:0004C93C
 12863 0001:0004C956 12864 0001:0004C960 12866 0001:0004C974 12875 0001:0004CAF1
 12864 0001:0004CAF2 12876 0001:0004CAF9 12877 0001:0004CB0B 12880 0001:0004CB37
 12883 0001:0004CB6F 12884 0001:0004CB95 12885 0001:0004CBBB 12886 0001:0004CBE1
 12887 0001:0004CC07 12888 0001:0004CC2D 12889 0001:0004CC53 12890 0001:0004CC79
 12892 0001:0004CC9F 12894 0001:0004CCB0 12895 0001:0004CCE0 12896 0001:0004CD0E
 12897 0001:0004CD3B 12898 0001:0004CD66 12899 0001:0004CD82 12900 0001:0004CD9C
 12901 0001:0004CDB8 12902 0001:0004CDD2 12903 0001:0004CE03 12904 0001:0004CE32
 12905 0001:0004CE5F 12906 0001:0004CE8A 12907 0001:0004CEB7 12908 0001:0004CEE2
 12909 0001:0004CF0F 12910 0001:0004CF3A 12892 0001:0004CF3B 12912 0001:0004CF42
 12914 0001:0004CF4D 12913 0001:0004CFAF 12916 0001:0004CFB2 12928 0001:0004D1F8
 12930 0001:0004D249 12931 0001:0004D260 12932 0001:0004D27A 12933 0001:0004D284
 12935 0001:0004D295 12945 0001:0004D42C 12933 0001:0004D42D 12946 0001:0004D434
 12947 0001:0004D446 12951 0001:0004D474 12953 0001:0004D4AB 12957 0001:0004D4E2
 12959 0001:0004D50A 12961 0001:0004D546 12965 0001:0004D66E 12968 0001:0004D818
 12969 0001:0004D832 12971 0001:0004D83B 12972 0001:0004D84D 12975 0001:0004D85C
 12977 0001:0004D869 12978 0001:0004D896 12979 0001:0004D8C5 12981 0001:0004D8DA
 12983 0001:0004D90F 12987 0001:0004D9B8 12991 0001:0004D9F6 12995 0001:0004D9F8
 12996 0001:0004D9FB 13001 0001:0004DA4C 13007 0001:0004DA50 13008 0001:0004DA5D
 13011 0001:0004DA61 13012 0001:0004DA8A 13013 0001:0004DA95 13009 0001:0004DA96
 13015 0001:0004DAA0 13019 0001:0004DAA8 13020 0001:0004DAAA 13023 0001:0004DAB6
 13025 0001:0004DAC3 13026 0001:0004DAD1 13030 0001:0004DAD6 13031 0001:0004DAE4
 13033 0001:0004DAE9 13035 0001:0004DAED 13039 0001:0004DAF0 13041 0001:0004DAF6
 13046 0001:0004DB23 13050 0001:0004DB28 13051 0001:0004DB35 13054 0001:0004DB38
 13055 0001:0004DB3B 13056 0001:0004DB52 13059 0001:0004DB54 13060 0001:0004DB57
 13061 0001:0004DB60 13064 0001:0004DB64 13065 0001:0004DB67 13068 0001:0004DB9F
 13071 0001:0004DBA4 13072 0001:0004DBA7 13076 0001:0004DBF8 13088 0001:0004DBFC
 13089 0001:0004DC14 13090 0001:0004DC22 13092 0001:0004DC26 13093 0001:0004DC44
 13094 0001:0004DC57 13096 0001:0004DC6A 13097 0001:0004DC77 13099 0001:0004DC7B
 13100 0001:0004DC99 13101 0001:0004DCAC 13103 0001:0004DCBF 13104 0001:0004DCDF
 13105 0001:0004DCF4 13106 0001:0004DD25 13108 0001:0004DDC0 13111 0001:0004DE0D
 13114 0001:0004DE34 13115 0001:0004DE3B 13132 0001:0004DE40 13133 0001:0004DE47
 13135 0001:0004DE53 13137 0001:0004DE5B 13139 0001:0004DE65 13140 0001:0004DE6F
 13141 0001:0004DE7D 13142 0001:0004DE89 13143 0001:0004DE9E 13145 0001:0004DEAC
 13149 0001:0004DEBA 13150 0001:0004DEC4 13155 0001:0004DECD 13156 0001:0004DED2
 13157 0001:0004DEE2 13160 0001:0004DEEA 13161 0001:0004DEF2 13162 0001:0004DEFA
 13165 0001:0004DF02 13167 0001:0004DF10 13169 0001:0004DF19 13170 0001:0004DF25
 13172 0001:0004DF2D 13173 0001:0004DF3A 13174 0001:0004DF57 13179 0001:0004DF7B
 13180 0001:0004DF7D 13182 0001:0004DF83 13183 0001:0004DF8D 13185 0001:0004DF97
 13188 0001:0004DFA1 13189 0001:0004DFAB 13190 0001:0004DFB4 13191 0001:0004DFBE
 13194 0001:0004DFCC 13196 0001:0004DFD5 13197 0001:0004DFE2 13200 0001:0004DFF4
 13201 0001:0004DFF6 13202 0001:0004DFFF 13204 0001:0004E009 13206 0001:0004E00D
 13208 0001:0004E01A 13209 0001:0004E027 13214 0001:0004E033 13216 0001:0004E055
 13220 0001:0004E077 13221 0001:0004E081 13223 0001:0004E08A 13225 0001:0004E0A9
 13227 0001:0004E0BA 13235 0001:0004E0CB 13236 0001:0004E0D5 13237 0001:0004E0DC
 13238 0001:0004E0DE 13239 0001:0004E0E5 13240 0001:0004E0F2 13241 0001:0004E0F9
 13244 0001:0004E115 13245 0001:0004E122 13246 0001:0004E12C 13248 0001:0004E139
 13249 0001:0004E155 13250 0001:0004E16B 13251 0001:0004E1A2 13252 0001:0004E1AB
 13253 0001:0004E1BA 13254 0001:0004E1C3 13255 0001:0004E1CC 13257 0001:0004E1D3
 13258 0001:0004E1DA 13259 0001:0004E204 13263 0001:0004E230 13265 0001:0004E23B
 13266 0001:0004E245 13268 0001:0004E24E 13269 0001:0004E254 13270 0001:0004E25C
 13271 0001:0004E262 13272 0001:0004E270 13273 0001:0004E284 13274 0001:0004E292
 13275 0001:0004E2A3 13276 0001:0004E2A8 13277 0001:0004E2AE 13278 0001:0004E2BC
 13279 0001:0004E2CD 13280 0001:0004E2D2 13286 0001:0004E2DA 13288 0001:0004E2E4
 13291 0001:0004E305 13292 0001:0004E318 13293 0001:0004E31F 13296 0001:0004E346
 13299 0001:0004E34B 13300 0001:0004E392 13302 0001:0004E3B4 13304 0001:0004E3F5
 13307 0001:0004E4A8 13300 0001:0004E4AE 13308 0001:0004E4BA 13309 0001:0004E4E9
 13311 0001:0004E4F9 13312 0001:0004E50A 13315 0001:0004E526 13316 0001:0004E546
 13319 0001:0004E572 13320 0001:0004E57C 13321 0001:0004E58A 13323 0001:0004E5AE
 13325 0001:0004E5C0 13315 0001:0004E5C6 13327 0001:0004E5D2 13328 0001:0004E5E0
 13329 0001:0004E600 13332 0001:0004E634 13333 0001:0004E644 13334 0001:0004E656
 13335 0001:0004E660 13338 0001:0004E686 13341 0001:0004E6AF 13343 0001:0004E6B6
 13328 0001:0004E6BC 13346 0001:0004E6D5 13347 0001:0004E6F1 13349 0001:0004E71D
 13346 0001:0004E73A 13353 0001:0004E74A 13355 0001:0004E754 13358 0001:0004E75E
 13359 0001:0004E77E 13363 0001:0004E7C3 13364 0001:0004E7CD 13365 0001:0004E7DB
 13367 0001:0004E7FF 13369 0001:0004E811 13358 0001:0004E817 13370 0001:0004E823
 13375 0001:0004E831 13376 0001:0004E83B 13381 0001:0004E842 13383 0001:0004E850
 13384 0001:0004E855 13390 0001:0004E85A 13391 0001:0004E864 13392 0001:0004E86E
 13393 0001:0004E878 13394 0001:0004E880 13400 0001:0004E888 13401 0001:0004E892
 13402 0001:0004E899 13403 0001:0004E8A9 13404 0001:0004E8B3 13405 0001:0004E8BD
 13406 0001:0004E8C7 13407 0001:0004E8D1 13408 0001:0004E8D8 13409 0001:0004E8E2
 13410 0001:0004E8E7 13412 0001:0004E8F1 13415 0001:0004E8F8 13416 0001:0004E92D
 13418 0001:0004E93D 13421 0001:0004E952 13422 0001:0004E964 13428 0001:0004E96E
 13434 0001:0004E973 13435 0001:0004E97D 13437 0001:0004E98A 13439 0001:0004E998
 13440 0001:0004E9BF 13441 0001:0004E9D7 13444 0001:0004E9E3 13445 0001:0004E9ED
 13446 0001:0004E9F7 13448 0001:0004EA10 13452 0001:0004EA38 13453 0001:0004EA42
 13455 0001:0004EA48 13456 0001:0004EA52 13461 0001:0004EA80 13463 0001:0004EA87
 13464 0001:0004EA91 13465 0001:0004EA9A 13466 0001:0004EAA7 13468 0001:0004EAB4
 13469 0001:0004EABE 13470 0001:0004EAC5 13471 0001:0004EACA 13473 0001:0004EAD4
 13475 0001:0004EAFB 13477 0001:0004EB0F 13479 0001:0004EB1C 13480 0001:0004EB26
 13481 0001:0004EB40 13484 0001:0004EB51 13485 0001:0004EB5F 13486 0001:0004EB8D
 13488 0001:0004EBA6 13489 0001:0004EBAD 13494 0001:0004EBC0 13495 0001:0004EBCE
 13496 0001:0004EBDC 13497 0001:0004EBE3 13499 0001:0004EBED 13500 0001:0004EBF2
 13501 0001:0004EBF4 13502 0001:0004EC04 13503 0001:0004EC0D 13505 0001:0004EC23
 13506 0001:0004EC2A 13511 0001:0004EC3B 13512 0001:0004EC45 13517 0001:0004EC51
 13519 0001:0004EC78 13521 0001:0004EC8C 13524 0001:0004ECAD 13530 0001:0004ECBB
 13531 0001:0004ECDA 13537 0001:0004ECDF 13538 0001:0004ECE9 13540 0001:0004ECFB
 13541 0001:0004ED00 13542 0001:0004ED0E 13545 0001:0004ED3E 13547 0001:0004ED4B
 13548 0001:0004ED72 13551 0001:0004EDA0 13552 0001:0004EDAB 13554 0001:0004EDBE
 13556 0001:0004EDD1 13557 0001:0004EDDB 13559 0001:0004EDE9 13561 0001:0004EE00
 13563 0001:0004EE07 13566 0001:0004EE1B 13567 0001:0004EE37 13570 0001:0004EE7C
 13566 0001:0004EE99 13573 0001:0004EEAC 13574 0001:0004EEB6 13576 0001:0004EECD
 13578 0001:0004EED2 13580 0001:0004EEE4 13581 0001:0004EEF4 13582 0001:0004EEFD
 13587 0001:0004EF04 13589 0001:0004EF1B 13591 0001:0004EF27 13592 0001:0004EF31
 13595 0001:0004EF4E 13597 0001:0004EF60 13598 0001:0004EF68 13602 0001:0004EF8B
 13616 0001:0004F031 13622 0001:0004F0B0 13624 0001:0004F0BA 13625 0001:0004F0C4
 13627 0001:0004F0CE 13628 0001:0004F0D3 13629 0001:0004F0E8 13631 0001:0004F0F8
 13632 0001:0004F0FF 13639 0001:0004F108 13640 0001:0004F135 13641 0001:0004F13A
 13643 0001:0004F155 13644 0001:0004F167 13645 0001:0004F191 13647 0001:0004F1A2
 13648 0001:0004F1B3 13652 0001:0004F1D7 13653 0001:0004F20B 13660 0001:0004F224
 13661 0001:0004F26C 13662 0001:0004F277 13663 0001:0004F27B 13664 0001:0004F27E
 13665 0001:0004F284 13666 0001:0004F28A 13667 0001:0004F290 13668 0001:0004F296
 13669 0001:0004F29D 13671 0001:0004F2A7 13672 0001:0004F2AA 13673 0001:0004F2B1
 13675 0001:0004F2C1 13676 0001:0004F2C4 13677 0001:0004F2CA 13678 0001:0004F2D5
 13679 0001:0004F2E0 13680 0001:0004F2E7 13682 0001:0004F2F7 13683 0001:0004F2FA
 13684 0001:0004F301 13686 0001:0004F311 13687 0001:0004F314 13688 0001:0004F31A
 13689 0001:0004F320 13690 0001:0004F326 13691 0001:0004F32A 13692 0001:0004F333
 13693 0001:0004F376 13696 0001:0004F380 13697 0001:0004F387 13698 0001:0004F395
 13701 0001:0004F3DB 13703 0001:0004F3EA 13718 0001:0004F3F0 13719 0001:0004F3FB
 13720 0001:0004F408 13721 0001:0004F415 13722 0001:0004F42C 13723 0001:0004F433
 13729 0001:0004F434 13730 0001:0004F440 13731 0001:0004F442 13734 0001:0004F452
 13747 0001:0004F47B 13750 0001:0004F482 13752 0001:0004F487 13753 0001:0004F48D
 13756 0001:0004F493 13732 0001:0004F494 13759 0001:0004F4BA 13766 0001:0004F4C6
 13769 0001:0004F4D0 13770 0001:0004F4D4 13772 0001:0004F501 13773 0001:0004F513
 13779 0001:0004F538 13780 0001:0004F53D 13781 0001:0004F549 13782 0001:0004F551
 13786 0001:0004F587 13791 0001:0004F5AC 13792 0001:0004F5E1 13793 0001:0004F5E5
 13795 0001:0004F608 13797 0001:0004F60D 13801 0001:0004F62F 13804 0001:0004F64F
 13805 0001:0004F659 13806 0001:0004F667 13808 0001:0004F679 13809 0001:0004F685
 13810 0001:0004F693 13812 0001:0004F6A3 13814 0001:0004F6B5 13815 0001:0004F6BB
 13816 0001:0004F6C1 13817 0001:0004F6C7 13818 0001:0004F6CD 13819 0001:0004F6D3
 13820 0001:0004F6D9 13821 0001:0004F6F2 13823 0001:0004F6FE 13824 0001:0004F706
 13825 0001:0004F719 13832 0001:0004F72C 13834 0001:0004F74C 13835 0001:0004F753
 13837 0001:0004F773 13841 0001:0004F77D 13842 0001:0004F784 13844 0001:0004F7AB
 13845 0001:0004F7B9 13847 0001:0004F7BF 13852 0001:0004F7C7 13854 0001:0004F7E4
 13857 0001:0004F7EB 13859 0001:0004F7F4 13863 0001:0004F802 13864 0001:0004F810
 13866 0001:0004F823 13873 0001:0004F841 13876 0001:0004F846 13877 0001:0004F84A
 13878 0001:0004F851 13879 0001:0004F85E 13880 0001:0004F86C 13881 0001:0004F875
 13883 0001:0004F88C 13885 0001:0004F89F 13887 0001:0004F8A4 13890 0001:0004F8B4
 13892 0001:0004F8C5 13895 0001:0004F8D9 13897 0001:0004F8EA 13898 0001:0004F8F4
 13900 0001:0004F934 13980 0001:0004F940 13981 0001:0004F944 13983 0001:0004F94D
 13984 0001:0004F952 13985 0001:0004F957 13989 0001:0004F95E 13990 0001:0004F963
 13991 0001:0004F968 13993 0001:0004F96D 13994 0001:0004F980 13995 0001:0004F991
 13996 0001:0004F99F 13997 0001:0004F9B1 14004 0001:0004F9B8 14005 0001:0004F9BA
 14006 0001:0004F9BC 14007 0001:0004F9C5 14008 0001:0004F9DD 14009 0001:0004F9E1
 14010 0001:0004F9F1 14012 0001:0004FA14 14013 0001:0004FA20 14014 0001:0004FA26
 14015 0001:0004FA34 14016 0001:0004FA4E 14017 0001:0004FA57 14019 0001:0004FA65
 14021 0001:0004FA86 14023 0001:0004FA95 14027 0001:0004FA9C 14028 0001:0004FAA8
 14029 0001:0004FAAE 14030 0001:0004FABC 14032 0001:0004FAD6 14033 0001:0004FADF
 14035 0001:0004FAF1 14037 0001:0004FB04 14039 0001:0004FB13 14043 0001:0004FB1C
 14044 0001:0004FB23 14045 0001:0004FB29 14046 0001:0004FB2E 14050 0001:0004FB30
 14052 0001:0004FB39 14054 0001:0004FB52 14055 0001:0004FB5C 14065 0001:0004FB74
 14066 0001:0004FB76 14067 0001:0004FB78 14069 0001:0004FB7A 14073 0001:0004FB7E
 14075 0001:0004FB80 14076 0001:0004FB94 14078 0001:0004FBAC 14079 0001:0004FBBA
 14081 0001:0004FBC1 14082 0001:0004FBCE 14084 0001:0004FBDB 14092 0001:0004FC09
 14094 0001:0004FC16 14097 0001:0004FC1B 14099 0001:0004FC2E 14100 0001:0004FC4A
 14102 0001:0004FC5C 14103 0001:0004FC6C 14105 0001:0004FC70 14106 0001:0004FC94
 14111 0001:0004FCB9 14113 0001:0004FCCC 14116 0001:0004FCE0 14123 0001:0004FCEC
 14124 0001:0004FD00 14126 0001:0004FD0C 14128 0001:0004FD20 14129 0001:0004FD26
 14131 0001:0004FD28 14132 0001:0004FD3F 14133 0001:0004FD4D 14134 0001:0004FD5B
 14135 0001:0004FD72 14136 0001:0004FD7F 14137 0001:0004FD8D 14138 0001:0004FD9B
 14139 0001:0004FDA9 14140 0001:0004FDC0 14141 0001:0004FDD0 14143 0001:0004FDDF
 14144 0001:0004FDF6 14145 0001:0004FE01 14146 0001:0004FE0F 14147 0001:0004FE1C
 14148 0001:0004FE29 14149 0001:0004FE37 14150 0001:0004FE44 14151 0001:0004FE52
 14152 0001:0004FE60 14153 0001:0004FE6E 14154 0001:0004FE7C 14155 0001:0004FE8A
 14158 0001:0004FE98 14216 0001:0004FEAC 14218 0001:0004FEB5 14219 0001:0004FEC9
 14220 0001:0004FECD 14222 0001:0004FEE4 14225 0001:0004FF0C 14226 0001:0004FF18
 14227 0001:0004FF26 14228 0001:0004FF37 14234 0001:0004FF40 14235 0001:0004FF50
 14236 0001:0004FF59 14239 0001:0004FF73 14242 0001:0004FF8A 14244 0001:0004FF8E
 14247 0001:0004FF9F 14248 0001:0004FFA7 14252 0001:0004FFCC 14255 0001:0004FFE6
 14256 0001:0004FFF3 14262 0001:0005001C 14263 0001:0005001F 14264 0001:0005002A
 14267 0001:0005002C 14268 0001:0005002F 14269 0001:0005003A 14273 0001:0005003C
 14274 0001:0005003D 14275 0001:0005003E 14276 0001:0005003F 14277 0001:00050041
 14278 0001:00050044 14279 0001:00050049 14280 0001:0005004B 14281 0001:00050050
 14282 0001:00050051 14283 0001:00050052 14284 0001:00050053 14286 0001:00050058
 14293 0001:0005005C 14294 0001:00050066 14296 0001:00050070 14297 0001:00050087
 14299 0001:0005009F 14301 0001:000500B0 14302 0001:000500C6 14304 0001:000500D5
 14305 0001:000500ED 14308 0001:00050122 14310 0001:00050131 14312 0001:00050145
 14313 0001:00050151 14315 0001:0005015A 14316 0001:0005016E 14318 0001:0005017C
 14322 0001:000501A4 14325 0001:000501AB 14329 0001:000501AC 14330 0001:000501AE
 14331 0001:000501B1 14332 0001:000501B3 14334 0001:000501B5 14335 0001:000501B7
 14336 0001:000501BA 14337 0001:000501BC 14338 0001:000501C1 14341 0001:000501C2
 14342 0001:000501C4 14343 0001:000501C7 14344 0001:000501C9 14347 0001:000501CE
 14354 0001:000501D0 14355 0001:000501D8 14356 0001:000501E1 14359 0001:000501FB
 14363 0001:00050233 14365 0001:0005023B 14367 0001:00050244 14371 0001:0005025A
 14372 0001:0005025D 14373 0001:00050268 14374 0001:00050276 14376 0001:00050291
 14380 0001:000502A1 14384 0001:000502C4 14385 0001:000502C5 14386 0001:000502C7
 14387 0001:000502CA 14388 0001:000502CB 14389 0001:000502CC 14390 0001:000502D1
 14391 0001:000502D5 14392 0001:000502D9 14393 0001:000502DD 14394 0001:000502E2
 14395 0001:000502E3 14396 0001:000502E4 14397 0001:000502E5 14398 0001:000502EB
 14402 0001:000502EC 14403 0001:000502FB 14404 0001:00050304 14407 0001:0005031E
 14409 0001:00050330 14410 0001:0005033E 14414 0001:00050348 14416 0001:00050359
 14476 0001:0005037C 14477 0001:00050382 14479 0001:0005038A 14483 0001:0005039E
 14484 0001:000503BA 14485 0001:000503C1 14490 0001:000503C4 14491 0001:000503CA
 14493 0001:000503E4 14495 0001:000503FE 14507 0001:00050404 14508 0001:0005040A
 14509 0001:0005041C 14511 0001:00050428 14512 0001:0005043B 14513 0001:00050441
 14515 0001:00050448 14516 0001:00050454 14518 0001:00050475 14519 0001:0005047A
 14521 0001:00050483 14522 0001:0005048D 14523 0001:0005049B 14524 0001:000504AA
 14526 0001:000504AF 14527 0001:000504C7 14530 0001:000504EE 14534 0001:00050500
 14535 0001:00050506 14536 0001:00050514 14538 0001:00050535 14542 0001:00050537
 14545 0001:00050559 14546 0001:00050563 14547 0001:00050579 14550 0001:00050583
 14556 0001:000505A0 14557 0001:000505A9 14559 0001:000505B0 14560 0001:000505B5
 14562 0001:000505C2 14563 0001:000505CC 14564 0001:000505DA 14565 0001:000505ED
 14567 0001:000505F2 14568 0001:0005060A 14571 0001:00050631 14575 0001:00050643
 14576 0001:00050649 14577 0001:00050657 14579 0001:0005067B 14583 0001:0005067D
 14586 0001:0005069F 14587 0001:000506A9 14591 0001:000506C7 14597 0001:000506D0
 14598 0001:000506D9 14600 0001:000506E0 14601 0001:000506E5 14603 0001:000506F2
 14604 0001:000506FC 14605 0001:0005070A 14606 0001:0005071D 14608 0001:00050722
 14609 0001:0005073A 14612 0001:00050761 14616 0001:00050773 14617 0001:00050779
 14618 0001:00050787 14620 0001:000507AC 14624 0001:000507AE 14627 0001:000507D0
 14628 0001:000507DA 14632 0001:000507F8 14637 0001:00050804 14638 0001:0005080C
 14640 0001:0005081E 14642 0001:0005082C 14643 0001:00050836 14644 0001:00050844
 14645 0001:0005084F 14646 0001:00050859 14647 0001:00050867 14649 0001:00050880
 14651 0001:00050892 14656 0001:00050898 14657 0001:000508A2 14659 0001:000508C6
 14660 0001:000508D0 14661 0001:000508DE 14662 0001:000508EC 14664 0001:000508F1
 14665 0001:00050908 14668 0001:00050925 14671 0001:00050937 14675 0001:0005093C
 14676 0001:0005094E 14677 0001:00050958 14687 0001:0005095C 14688 0001:0005096B
 14689 0001:00050974 14692 0001:0005098E 14694 0001:0005099C 14697 0001:000509A9
 14700 0001:000509B3 14701 0001:000509C1 14703 0001:000509C4 14705 0001:000509C8
 14706 0001:000509CD 14710 0001:000509D0 14712 0001:000509E6 14714 0001:000509F7
 14715 0001:000509F9 14716 0001:000509FE 14717 0001:00050A04 14718 0001:00050A0A
 14719 0001:00050A20 14721 0001:00050A3A 14726 0001:00050A55 14727 0001:00050A57
 14728 0001:00050A5C 14729 0001:00050A62 14730 0001:00050A69 14736 0001:00050A84
 14737 0001:00050A8A 14742 0001:00050AA4 14744 0001:00050AC4 14745 0001:00050AC8
 14746 0001:00050ACE 14747 0001:00050AD8 14748 0001:00050AE6 14749 0001:00050AF2
 14751 0001:00050AFB 14752 0001:00050B11 14755 0001:00050B26 14759 0001:00050B38
 14761 0001:00050B44 14764 0001:00050B55 14766 0001:00050B73 14773 0001:00050BB8
 14775 0001:00050BBF 14776 0001:00050BC2 14779 0001:00050BC6 14780 0001:00050BCF
 14783 0001:00050BE9 14785 0001:00050C08 14786 0001:00050C12 14787 0001:00050C20
 14788 0001:00050C2F 14790 0001:00050C38 14791 0001:00050C50 14793 0001:00050C62
 14794 0001:00050C87 14795 0001:00050C98 14797 0001:00050CA9 14798 0001:00050CC4
 14800 0001:00050CDF 14801 0001:00050D04 14805 0001:00050D2C 14807 0001:00050D3A
 14808 0001:00050D50 14811 0001:00050D74 14814 0001:00050D86 14815 0001:00050D90
 14820 0001:00050DD4 14821 0001:00050DD9 14822 0001:00050DE2 14824 0001:00050DFC
 14826 0001:00050E0E 14828 0001:00050E18 14830 0001:00050E2A 14831 0001:00050E40
 14835 0001:00050E46 14836 0001:00050E50 14840 0001:00050E90 14841 0001:00050E97
 14842 0001:00050EAC 14843 0001:00050EBF 14846 0001:00050EC4 14847 0001:00050ECA
 14848 0001:00050ECF 14849 0001:00050EE1 14850 0001:00050EF2 14851 0001:00050EF9
 14873 0001:00050F00 14874 0001:00050F04 14875 0001:00050F19 14876 0001:00050F20
 14882 0001:00050F24 14883 0001:00050F2A 14885 0001:00050F33 14886 0001:00050F3D
 14887 0001:00050F46 14890 0001:00050F4C 14891 0001:00050F57 14892 0001:00050F5E
 14893 0001:00050F75 14896 0001:00050F78 14897 0001:00050F7E 14898 0001:00050F87
 14905 0001:00050F8C 14906 0001:00050F90 14907 0001:00050FA5 14908 0001:00050FAC
 14914 0001:00050FB0 14915 0001:00050FB7 14916 0001:00050FC0 14917 0001:00050FC2
 14918 0001:00050FCA 14919 0001:00050FD2 14920 0001:00050FD9 14921 0001:00050FDE
 14922 0001:00050FE5 14923 0001:00050FEA 14924 0001:00050FF7 14925 0001:00051000
 14928 0001:00051004 14929 0001:0005100F 14930 0001:00051016 14931 0001:0005102D
 14934 0001:00051030 14935 0001:00051036 14936 0001:0005103F 14943 0001:00051044
 14944 0001:00051048 14945 0001:0005105D 14946 0001:00051064 14952 0001:00051068
 14953 0001:0005106E 14955 0001:00051077 14956 0001:00051082 14957 0001:0005108B
 14960 0001:00051090 14961 0001:0005109B 14962 0001:000510A2 14963 0001:000510B9
 14966 0001:000510BC 14967 0001:000510C2 14968 0001:000510CB 14976 0001:000510D0
 14977 0001:000510EE 14978 0001:000510F8 14979 0001:00051105 14982 0001:0005111D
 14983 0001:00051125 14984 0001:00051133 14986 0001:00051141 14987 0001:0005114D
 14988 0001:00051168 14989 0001:00051172 14984 0001:00051173 14991 0001:00051183
 14994 0001:000511AE 14997 0001:000511B8 14998 0001:000511C3 14999 0001:000511CA
 15000 0001:000511D8 15001 0001:000511EF 15006 0001:000511F4 15007 0001:000511F8
 15008 0001:0005120D 15009 0001:00051214 15015 0001:00051218 15016 0001:0005121F
 15017 0001:00051228 15018 0001:0005122A 15019 0001:00051236 15020 0001:00051241
 15021 0001:0005124D 15022 0001:00051256 15027 0001:0005125C 15028 0001:00051263
 15029 0001:0005126B 15030 0001:00051279 15031 0001:00051288 15033 0001:000512A4
 15035 0001:000512B4 15040 0001:000512B8 15043 0001:000512BF 15044 0001:000512C5
 15045 0001:000512D8 15046 0001:000512E0 15047 0001:000512E3 15052 0001:000512E8
 15055 0001:000512EF 15056 0001:000512F5 15057 0001:00051308 15058 0001:00051310
 15059 0001:00051313 15064 0001:00051318 15067 0001:0005131F 15068 0001:00051325
 15069 0001:00051337 15070 0001:0005133F 15071 0001:00051342 15074 0001:00051348
 15075 0001:0005134E 15076 0001:00051357 15080 0001:0005135C 15081 0001:00051364
 15085 0001:00051368 15086 0001:00051370 15090 0001:00051374 15091 0001:0005137C
 15095 0001:00051380 15096 0001:00051388 15099 0001:0005138C 15100 0001:00051393
 15101 0001:0005139F 15102 0001:000513AD 15103 0001:000513B4 15104 0001:000513C3
 15109 0001:000513C8 15110 0001:000513D0 15111 0001:000513D8 15114 0001:000513E6
 15115 0001:000513ED 15117 0001:000513F1 15119 0001:00051407 15120 0001:00051411
 15122 0001:00051412 15115 0001:00051413 15125 0001:00051424 15127 0001:00051434
 15131 0001:00051438 15132 0001:00051442 15133 0001:00051446 15134 0001:00051451
 15135 0001:0005145F 15136 0001:00051470 15138 0001:00051494 15140 0001:000514AA
 15143 0001:000514B0 15144 0001:000514B1 15146 0001:000514D3 15147 0001:000514EC
 15151 0001:000514F0 15152 0001:000514FF 15153 0001:0005150A 15154 0001:00051518
 15155 0001:00051524 15157 0001:00051546 15159 0001:00051559 15166 0001:00051560
 15167 0001:00051564 15168 0001:0005156D 15167 0001:00051576 15169 0001:00051579
 15170 0001:00051580 15176 0001:00051584 15177 0001:0005158A 15179 0001:00051593
 15180 0001:0005159E 15181 0001:000515A7 15184 0001:000515AC 15185 0001:000515B7
 15186 0001:000515BE 15187 0001:000515D5 15190 0001:000515D8 15191 0001:000515DE
 15192 0001:000515E7 15201 0001:000515EC 15202 0001:000515EF 15203 0001:0005160D
 15205 0001:00051610 15207 0001:00051628 15209 0001:0005162D 15210 0001:0005162E
 15211 0001:00051631 15213 0001:00051634 15214 0001:0005164F 15220 0001:00051658
 15221 0001:0005165D 15231 0001:00051660 15232 0001:0005167C 15233 0001:000516CC
 15234 0001:000516D8 15235 0001:00051723 15236 0001:00051752 15325 0001:0005184C
 15326 0001:00051879 15327 0001:00051888 15328 0001:00051897 15329 0001:000518A5
 15330 0001:000518AF 15332 0001:000518C6 15333 0001:000518CE 15334 0001:000518ED
 15336 0001:000518FE 15337 0001:0005190A 15338 0001:00051918 15339 0001:0005191C
 15340 0001:00051924 15341 0001:0005193E 15342 0001:0005194A 15343 0001:0005195F
 15344 0001:0005196D 15345 0001:0005198B 15346 0001:000519AB 15347 0001:000519CE
 15348 0001:000519F1 15349 0001:00051A11 15350 0001:00051A31 15351 0001:00051A36
 15353 0001:00051A48 15354 0001:00051A59 15353 0001:00051A67 15356 0001:00051A6A
 15358 0001:00051A70 15359 0001:00051A8B 15361 0001:00051AA9 15362 0001:00051AB7
 15364 0001:00051ABA 15366 0001:00051AC4 15330 0001:00051AC5 15368 0001:00051ADB
 15369 0001:00051AE3 15371 0001:00051B15 15373 0001:00051B3C 15374 0001:00051B72
 15375 0001:00051B79 15376 0001:00051B87 15377 0001:00051B95 15379 0001:00051BA2
 15380 0001:00051BB8 15381 0001:00051BC6 15383 0001:00051BE5 15386 0001:00051C10
 15389 0001:00051C2D 15391 0001:00051C5E 15394 0001:00051C68 15395 0001:00051C6D
 15396 0001:00051C74 15398 0001:00051C78 15399 0001:00051C7F 15400 0001:00051C88
 15402 0001:00051C97 15404 0001:00051CA6 15562 0001:00051CAC 15563 0001:00051CB3
 15564 0001:00051CBD 15565 0001:00051CCB 15567 0001:00051CE9 15569 0001:00051CFE
 15590 0001:00051D04 15591 0001:00051D09 15595 0001:00051D0C 15596 0001:00051D11
 15632 0001:00051D14 15633 0001:00051D16 15634 0001:00051D19 15636 0001:00051D1C
 15637 0001:00051D2A 15639 0001:00051D2E 15640 0001:00051D38 15641 0001:00051D46
 15643 0001:00051D4F 15644 0001:00051D63 15646 0001:00051D67 15647 0001:00051D79
 15651 0001:00051D83 15658 0001:00051DB7 15660 0001:00051DC2 15661 0001:00051DC8
 15663 0001:00051DCE 15664 0001:00051DF0 15668 0001:00051E25 15670 0001:00051E3A
 15696 0001:00051E58 15697 0001:00051E5E 15698 0001:00051E7B 15699 0001:00051E85
 15704 0001:00051E88 15705 0001:00051E8E 15706 0001:00051EAB 15707 0001:00051EB5
 15713 0001:00051EB8 15714 0001:00051EC1 15717 0001:00051EE7 15718 0001:00051EF1
 15719 0001:00051EFF 15721 0001:00051F16 15724 0001:00051F25 15727 0001:00051F2C
 15728 0001:00051F32 15730 0001:00051F5E 15731 0001:00051F68 15736 0001:00051F6C
 15737 0001:00051F72 15738 0001:00051F8F 15739 0001:00051F99 15742 0001:00051F9C
 15743 0001:00051FA2 15745 0001:00051FB9 15746 0001:00051FD3 15748 0001:00051FE0
 15749 0001:00051FEA 15758 0001:00051FF0 15759 0001:00052005 15760 0001:0005200D
 15762 0001:00052013 15763 0001:0005202B 15765 0001:0005202F 15766 0001:00052040
 15769 0001:00052057 15770 0001:0005206F 15771 0001:00052073 15773 0001:00052091
 15774 0001:000520A0 15775 0001:000520B6 15776 0001:000520DA 15787 0001:00052124
 15788 0001:00052138 15790 0001:0005218C 15804 0001:000521A4 15805 0001:000521C4
 15806 0001:000521D3 15808 0001:000521D9 15809 0001:000521E7 15811 0001:000521FD
 15812 0001:00052218 15813 0001:00052223 15814 0001:00052231 15815 0001:00052246
 15816 0001:0005224E 15818 0001:0005225A 15819 0001:0005226C 15820 0001:0005227A
 15822 0001:00052295 15825 0001:000522B5 15827 0001:000522E5 15829 0001:000522EC
 15830 0001:0005230C 15832 0001:0005231B 15833 0001:0005232A 15834 0001:00052338
 15835 0001:00052346 15836 0001:00052354 15837 0001:00052363 15838 0001:0005237C
 15839 0001:00052394 15842 0001:000523B2 15843 0001:000523DC 15845 0001:000523E9
 15846 0001:000523F8 15847 0001:00052406 15848 0001:00052422 15849 0001:0005242E
 15850 0001:0005243D 15851 0001:0005244B 15852 0001:00052456 15853 0001:00052462
 15854 0001:00052474 15856 0001:0005249D 15859 0001:000524BA 15862 0001:000524CA
 15865 0001:000524E4 15868 0001:0005250A 15871 0001:0005251A 15872 0001:00052545
 15880 0001:00052558 15881 0001:0005257B 15884 0001:0005259C 15885 0001:000525A0
 15888 0001:000525B7 15889 0001:000525D0 15891 0001:00052602 15896 0001:0005260C
 15897 0001:00052612 15898 0001:0005262C 15899 0001:00052636 15905 0001:0005263C
 15906 0001:00052643 15908 0001:00052645 15909 0001:0005264A 15910 0001:0005264C
 15912 0001:0005264E 15913 0001:00052653 15914 0001:00052659 15915 0001:0005265A
 15916 0001:00052660 15917 0001:00052662 15918 0001:00052664 15919 0001:00052666
 15920 0001:0005266C 15921 0001:0005266E 15922 0001:00052670 15923 0001:00052672
 15924 0001:00052677 15925 0001:00052679 15926 0001:0005267E 15927 0001:00052680
 15928 0001:00052681 15929 0001:00052686 15930 0001:00052687 15933 0001:0005268C
 15934 0001:00052692 15939 0001:00052694 15940 0001:000526A6 15941 0001:000526C8
 15952 0001:000526CC 15953 0001:000526EF 15955 0001:000526F4 15958 0001:000526FD
 15959 0001:0005270A 15960 0001:00052717 15964 0001:00052726 15966 0001:00052728
 15967 0001:00052731 15971 0001:00052761 15972 0001:00052768 15974 0001:0005276D
 15977 0001:00052776 15979 0001:00052778 15980 0001:0005277F 15981 0001:00052780
 15982 0001:0005278E 15984 0001:00052790 15985 0001:000527AD 15986 0001:000527CC
 15988 0001:000527D4 15989 0001:000527DF 15990 0001:000527EB 15991 0001:000527F9
 15992 0001:0005280B 15993 0001:00052815 15996 0001:00052843 15998 0001:0005286A
 16001 0001:00052878 16003 0001:000528B3 16007 0001:000528D0 16008 0001:000528DB
 16011 0001:000528EF 16012 0001:0005291C 16017 0001:00052924 16018 0001:00052927
 16021 0001:00052942 16022 0001:00052949 16023 0001:00052957 16024 0001:00052974
 16026 0001:0005297B 16027 0001:0005298C 16028 0001:00052995 16029 0001:000529A1
 16031 0001:000529AB 16033 0001:000529BF 16035 0001:000529CE 16039 0001:000529D0
 16041 0001:000529E2 16042 0001:000529EC 16043 0001:000529FA 16045 0001:00052A0C
 16046 0001:00052A1C 16047 0001:00052A26 16048 0001:00052A2D 16055 0001:00052A30
 16056 0001:00052A36 16058 0001:00052A3F 16060 0001:00052A47 16061 0001:00052A50
 16062 0001:00052A5A 16064 0001:00052A61 16068 0001:00052A69 16069 0001:00052A72
 16072 0001:00052A78 16073 0001:00052A7E 16075 0001:00052A87 16077 0001:00052A8C
 16078 0001:00052A95 16079 0001:00052AA2 16081 0001:00052AA9 16085 0001:00052AB1
 16086 0001:00052ABA 16090 0001:00052AC0 16091 0001:00052AC5 16095 0001:00052AC8
 16096 0001:00052ACD 16103 0001:00052AD0 16104 0001:00052AF4 16107 0001:00052B30
 16108 0001:00052B47 16112 0001:00052B56 16113 0001:00052B6D 16117 0001:00052B7C
 16118 0001:00052B93 16122 0001:00052BA2 16123 0001:00052BB9 16127 0001:00052BC8
 16128 0001:00052BDF 16132 0001:00052BEE 16133 0001:00052C05 16137 0001:00052C2A
 16138 0001:00052C41 16142 0001:00052C63 16146 0001:00052C7C 16150 0001:00052C95
 16153 0001:00052CDB 16256 0001:00052CE8 16257 0001:00052D03 16258 0001:00052D11
 16259 0001:00052D1A 16261 0001:00052D24 16262 0001:00052D38 16259 0001:00052D3B
 16263 0001:00052D5B 16273 0001:00052D64 16274 0001:00052D7C 16276 0001:00052D89
 16278 0001:00052D97 16279 0001:00052D9E 16281 0001:00052DB5 16285 0001:00052DD0
 16286 0001:00052DDE 16287 0001:00052DE5 16289 0001:00052DFC 16293 0001:00052E17
 16294 0001:00052E25 16295 0001:00052E2C 16296 0001:00052E33 16298 0001:00052E3F
 16299 0001:00052E46 16301 0001:00052E57 16302 0001:00052E70 16304 0001:00052E78
 16307 0001:00052E89 16308 0001:00052E95 16310 0001:00052EB3 16312 0001:00052EC6
 16313 0001:00052ED7 16314 0001:00052EEA 16315 0001:00052EFD 16316 0001:00052F0E
 16317 0001:00052F18 16318 0001:00052F22 16319 0001:00052F2C 16320 0001:00052F36
 16321 0001:00052F45 16322 0001:00052F4C 16324 0001:00052F6E 16326 0001:00052F7C
 16327 0001:00052F85 16328 0001:00052F8D 16330 0001:00052F95 16331 0001:00052FA6
 16332 0001:00052FB7 16333 0001:00052FC8 16334 0001:00052FCD 16335 0001:00052FDE
 16336 0001:00052FEF 16337 0001:00053000 16339 0001:00053014 16341 0001:00053045
 16349 0001:000530B8 16350 0001:000530DF 16352 0001:000530EC 16353 0001:000530F0
 16354 0001:000530FE 16356 0001:00053106 16357 0001:00053112 16358 0001:00053125
 16361 0001:0005313F 16363 0001:00053145 16364 0001:00053149 16366 0001:0005314D
 16367 0001:00053159 16370 0001:00053166 16371 0001:0005316A 16372 0001:0005318D
 16373 0001:00053193 16374 0001:00053199 16376 0001:000531A5 16354 0001:000531A9
 16378 0001:000531B2 16379 0001:000531BB 16380 0001:000531C4 16382 0001:000531E0
 16384 0001:00053204 16386 0001:00053213 16392 0001:00053238 16393 0001:0005325A
 16395 0001:00053267 16397 0001:00053283 16401 0001:00053291 16403 0001:00053298
 16406 0001:000532B7 16410 0001:00053334 16412 0001:00053342 16414 0001:00053379
 16417 0001:00053398 16422 0001:000533A9 16423 0001:000533B3 16426 0001:000533BA
 16427 0001:000533C8 16428 0001:000533CF 16429 0001:000533D9 16430 0001:000533E0
 16431 0001:000533EA 16432 0001:000533F1 16433 0001:000533FB 16434 0001:00053402
 16435 0001:0005340C 16436 0001:00053416 16437 0001:00053420 16438 0001:0005342A
 16439 0001:00053434 16440 0001:0005343B 16441 0001:00053445 16442 0001:0005344C
 16443 0001:00053456 16444 0001:0005345D 16445 0001:00053467 16446 0001:0005346E
 16447 0001:00053478 16448 0001:0005347F 16449 0001:00053489 16450 0001:00053490
 16451 0001:0005349A 16452 0001:000534A1 16453 0001:000534AB 16454 0001:000534B2
 16455 0001:000534BC 16456 0001:000534C3 16457 0001:000534CE 16458 0001:000534DD
 16461 0001:000534E2 16462 0001:000534EC 16463 0001:000534F6 16464 0001:00053500
 16465 0001:0005350A 16466 0001:00053514 16467 0001:0005351E 16468 0001:00053528
 16469 0001:00053532 16470 0001:0005353C 16471 0001:00053546 16472 0001:00053550
 16473 0001:0005355A 16474 0001:00053564 16475 0001:0005356E 16476 0001:00053578
 16477 0001:00053582 16478 0001:0005358C 16479 0001:00053596 16480 0001:000535A0
 16481 0001:000535AA 16482 0001:000535B4 16483 0001:000535BE 16484 0001:000535C8
 16485 0001:000535D2 16486 0001:000535DC 16487 0001:000535E6 16488 0001:000535F0
 16489 0001:000535FA 16490 0001:00053604 16491 0001:0005360E 16492 0001:00053618
 16494 0001:0005361D 16497 0001:00053636 16501 0001:00053651 16503 0001:0005365F
 16504 0001:00053666 16506 0001:0005367D 16510 0001:00053698 16511 0001:000536A6
 16512 0001:000536AD 16514 0001:000536C4 16517 0001:00053701 16521 0001:000537B8
 16522 0001:000537CF 16526 0001:000537D0 16527 0001:000537E7 16534 0001:000537E8
 16535 0001:000537F2 16538 0001:000537F4 16540 0001:00053807 16541 0001:00053812
 16542 0001:0005381D 16545 0001:00053828 16546 0001:00053833 16549 0001:0005383E
 16550 0001:0005385A 16551 0001:00053882 16568 0001:00053888 16572 0001:0005388C
 16573 0001:00053893 16574 0001:00053898 16579 0001:0005389C 16580 0001:000538A3
 16582 0001:000538C0 16584 0001:000538C5 16586 0001:000538CA 16587 0001:000538CB
 16588 0001:000538CE 16590 0001:000538D1 16591 0001:000538E1 16596 0001:000538E8
 16597 0001:000538EF 16602 0001:0005391D 16604 0001:00053922 16605 0001:00053923
 16606 0001:00053926 16608 0001:00053929 16609 0001:00053939 16614 0001:00053940
 16615 0001:00053946 16616 0001:00053955 16617 0001:00053963 16619 0001:00053988
 16621 0001:0005399B 16626 0001:000539A0 16627 0001:000539A7 16629 0001:000539C4
 16631 0001:000539C9 16633 0001:000539CE 16634 0001:000539CF 16635 0001:000539D2
 16637 0001:000539D5 16638 0001:000539E5 16650 0001:000539EC 16651 0001:000539F5
 16654 0001:000539FC 16655 0001:00053A0B 16656 0001:00053A19 16657 0001:00053A23
 16658 0001:00053A32 16660 0001:00053A3D 16661 0001:00053A47 16662 0001:00053A56
 16664 0001:00053A61 16665 0001:00053A6B 16666 0001:00053A7A 16668 0001:00053A85
 16671 0001:00053A8F 16675 0001:00053A96 16676 0001:00053AA5 16677 0001:00053AAF
 16668 0001:00053AB0 16679 0001:00053AB3 16682 0001:00053ABD 16683 0001:00053AD7
 16684 0001:00053AE8 16679 0001:00053AE9 16686 0001:00053AF9 16688 0001:00053B09
 16698 0001:00053B10 16700 0001:00053B13 16701 0001:00053B19 16704 0001:00053B20
 16706 0001:00053B33 16707 0001:00053B49 16708 0001:00053B56 16709 0001:00053B71
 16713 0001:00053B86 16714 0001:00053B93 16718 0001:00053B98 16719 0001:00053B9F
 16720 0001:00053BA5 16722 0001:00053BA8 16723 0001:00053BAE 16725 0001:00053BB5
 16726 0001:00053BBA 16727 0001:00053BC8 16729 0001:00053BD2 16730 0001:00053BDA
 16732 0001:00053BF3 16733 0001:00053C03 16735 0001:00053C10 16736 0001:00053C15
 16737 0001:00053C24 16739 0001:00053C2F 16740 0001:00053C37 16742 0001:00053C51
 16744 0001:00053C5D 16754 0001:00053C64 16755 0001:00053C7F 16756 0001:00053C8C
 16757 0001:00053CA8 16758 0001:00053CF5 16760 0001:00053D44 16762 0001:00053D62
 16773 0001:00053D7D 16783 0001:00053D98 16793 0001:00053DA5 16796 0001:00053DB6
 16803 0001:00053DC7 16807 0001:00053DE2 16813 0001:00053DFD 16816 0001:00053E02
 16820 0001:00053E22 16823 0001:00053E42 16824 0001:00053E43 16826 0001:00053E4D
 16831 0001:00053E6D 16836 0001:00053E88 16841 0001:00053EA3 16842 0001:00053EAC
 16847 0001:00053EC7 16849 0001:00053ED5 16852 0001:00053F12 16856 0001:000541D8
 16857 0001:000541F3 16860 0001:000541F4 16861 0001:000541F7 16862 0001:00054208
 16865 0001:0005420C 16869 0001:0005420F 16871 0001:00054216 16886 0001:00054218
 16887 0001:0005421B 16889 0001:00054222 16894 0001:00054224 16895 0001:0005422C
 16897 0001:0005423B 16898 0001:00054240 16900 0001:0005424D 16903 0001:00054275
 16904 0001:00054288 16906 0001:0005428A 16898 0001:0005428B 16907 0001:0005428E
 16918 0001:00054294 16919 0001:0005429B 16920 0001:000542AE 16921 0001:000542BC
 16923 0001:000542D3 16925 0001:000542E3 16927 0001:000542E8 16928 0001:00054305
 16929 0001:00054309 16931 0001:00054326 16932 0001:00054335 16933 0001:00054343
 16934 0001:0005435B 16936 0001:0005436F 16937 0001:00054381 16938 0001:00054384
 16939 0001:00054389 16940 0001:0005439E 16942 0001:000543B1 16944 0001:000543E6
 16946 0001:000543EC 16947 0001:0005440B 16948 0001:00054429 16950 0001:00054433
 16952 0001:0005443E 16955 0001:00054468 16958 0001:00054485 16959 0001:0005448C
 16960 0001:00054493 16961 0001:0005449A 16962 0001:000544A1 16963 0001:000544B6
 16964 0001:000544BD 16965 0001:000544C4 16966 0001:000544CB 16967 0001:000544D2
 16968 0001:000544D9 16969 0001:000544E0 16970 0001:000544E7 16971 0001:000544EE
 16972 0001:000544F5 16973 0001:0005450C 16974 0001:00054523 16975 0001:0005452A
 16976 0001:00054534 16977 0001:0005453B 16978 0001:0005454A 16979 0001:00054551
 16980 0001:00054562 16981 0001:0005456C 16983 0001:00054573 16984 0001:0005457D
 16985 0001:00054587 16987 0001:00054591 16989 0001:00054596 16992 0001:0005459F
 16995 0001:000545A4 16997 0001:000545B2 16998 0001:000545B9 17002 0001:000545BE
 17003 0001:000545CF 17005 0001:000545E0 17006 0001:000545F9 17008 0001:00054601
 17037 0001:00054614 17039 0001:00054619 17040 0001:0005462A 17041 0001:0005463B
 17042 0001:0005464C 17043 0001:0005465D 17045 0001:0005466E 17046 0001:00054675
 17047 0001:00054681 17048 0001:00054688 17049 0001:0005468F 17050 0001:00054699
 17051 0001:000546A0 17052 0001:000546A7 17055 0001:000546C9 17056 0001:000546DC
 17058 0001:000546EA 17059 0001:000546F3 17060 0001:000546FB 17063 0001:00054703
 17064 0001:00054708 17065 0001:00054712 17066 0001:0005471C 17068 0001:0005472D
 17069 0001:0005473E 17070 0001:00054743 17071 0001:0005474A 17072 0001:00054754
 17073 0001:0005475E 17074 0001:00054765 17075 0001:0005476C 17076 0001:00054773
 17077 0001:0005477A 17078 0001:00054781 17080 0001:00054788 17081 0001:0005478F
 17082 0001:00054796 17084 0001:0005479D 17086 0001:000547A4 17089 0001:000547AC
 17091 0001:000547B6 17093 0001:000547D0 17094 0001:000547DC 17095 0001:000547E7
 17096 0001:000547F3 17098 0001:000547FE 17101 0001:00054803 17107 0001:00054850
 17113 0001:0005489D 17119 0001:000548EA 17120 0001:000548FF 17122 0001:00054908
 17136 0001:00054921 17142 0001:0005496E 17148 0001:000549BB 17154 0001:00054A08
 17156 0001:00054A16 17158 0001:00054A24 17160 0001:00054A32 17161 0001:00054A37
 17165 0001:00054A61 17167 0001:00054A6E 17170 0001:00054A82 17171 0001:00054AB4
 17175 0001:00054AF0 17179 0001:00054AF7 17180 0001:00054AFC 17183 0001:00054B2B
 17190 0001:00054BFC 17191 0001:00054C10 17192 0001:00054C1E 17194 0001:00054C31
 17195 0001:00054C3B 17197 0001:00054C45 17198 0001:00054C58 17200 0001:00054C5F
 17201 0001:00054C69 17202 0001:00054C70 17203 0001:00054C7A 17204 0001:00054C81
 17205 0001:00054C8B 17206 0001:00054C92 17207 0001:00054C9C 17208 0001:00054CA3
 17209 0001:00054CAD 17211 0001:00054CB4 17212 0001:00054CB9 17214 0001:00054CC4
 17216 0001:00054CD6 17217 0001:00054CE3 17220 0001:00054CF0 17221 0001:00054CF9
 17223 0001:00054D08 17224 0001:00054D12 17225 0001:00054D19 17226 0001:00054D23
 17227 0001:00054D2A 17228 0001:00054D34 17230 0001:00054D3B 17231 0001:00054D45
 17232 0001:00054D4F 17233 0001:00054D59 17234 0001:00054D63 17237 0001:00054D6A
 17239 0001:00054D73 17240 0001:00054D7F 17241 0001:00054D89 17244 0001:00054D9C
 17245 0001:00054DA6 17246 0001:00054DAD 17247 0001:00054DB7 17248 0001:00054DBE
 17249 0001:00054DC8 17251 0001:00054DCF 17252 0001:00054DDE 17254 0001:00054DE5
 17255 0001:00054DEA 17257 0001:00054DFE 17258 0001:00054E08 17259 0001:00054E0F
 17261 0001:00054E3E 17289 0001:00054E54 17290 0001:00054E80 17292 0001:00054FE6
 17284 0001:00055004 17285 0001:00055028 17286 0001:00055037 17288 0001:00055051

Line numbers for frmMain(frmMain.pas) segment .text

    39 0001:000557F4    40 0001:000557F8    41 0001:00055802    42 0001:00055814
    43 0001:0005582A    44 0001:00055836    49 0001:00055850    50 0001:00055855
    56 0001:00055862    57 0001:0005586E    54 0001:00055875    59 0001:00055881
    60 0001:0005588C    65 0001:00055890    66 0001:00055895    73 0001:00055898
    74 0001:000558B5    75 0001:000558C9    76 0001:000558F3    77 0001:000558F9
    79 0001:00055906    80 0001:0005592A    86 0001:00055944    87 0001:00055949
    88 0001:00055959    89 0001:00055969    91 0001:00055970    92 0001:00055977
    98 0001:0005597C    99 0001:00055981   100 0001:00055992   102 0001:000559A3
   103 0001:000559B0   104 0001:000559C4   100 0001:000559C5   105 0001:000559C8
   106 0001:000559DE   108 0001:000559FB   110 0001:00055A40   110 0001:00055A47

Line numbers for LearnDelphi(X:\_Dev\Delphi\06\LearnDelphi\LearnDelphi.dpr) segment .text

    10 0001:00055C80    11 0001:00055C90    12 0001:00055C9C    13 0001:00055CB4
    14 0001:00055CC0

Bound resource files

X:\_Dev\Delphi\Lib\Pack\EurekaLog6\Delphi6\DIALOG.RES
frmMain.dfm
LearnDelphi.res
LearnDelphi.drf


Program entry point at 0001:00055C80
